
TestPratikum2.elf:     file format elf32-avr

Sections:
Idx Name          Size      VMA       LMA       File off  Algn
  0 .text         00003ff8  00000000  00000000  00000094  2**1
                  CONTENTS, ALLOC, LOAD, READONLY, CODE
  1 .data         00000058  00802000  00003ff8  0000408c  2**0
                  CONTENTS, ALLOC, LOAD, DATA
  2 .bss          0000039b  00802058  00802058  000040e4  2**0
                  ALLOC
  3 .comment      0000005c  00000000  00000000  000040e4  2**0
                  CONTENTS, READONLY
  4 .debug_aranges 00000758  00000000  00000000  00004140  2**3
                  CONTENTS, READONLY, DEBUGGING
  5 .debug_info   000129ed  00000000  00000000  00004898  2**0
                  CONTENTS, READONLY, DEBUGGING
  6 .debug_abbrev 00003631  00000000  00000000  00017285  2**0
                  CONTENTS, READONLY, DEBUGGING
  7 .debug_line   0000c5bb  00000000  00000000  0001a8b6  2**0
                  CONTENTS, READONLY, DEBUGGING
  8 .debug_frame  00001724  00000000  00000000  00026e74  2**2
                  CONTENTS, READONLY, DEBUGGING
  9 .debug_str    00033f6c  00000000  00000000  00028598  2**0
                  CONTENTS, READONLY, DEBUGGING
 10 .debug_loc    00008534  00000000  00000000  0005c504  2**0
                  CONTENTS, READONLY, DEBUGGING
 11 .debug_ranges 00000848  00000000  00000000  00064a38  2**3
                  CONTENTS, READONLY, DEBUGGING
 12 .debug_macro  0000d360  00000000  00000000  00065280  2**0
                  CONTENTS, READONLY, DEBUGGING

Disassembly of section .text:

00000000 <__vectors>:
       0:	46 c2       	rjmp	.+1164   	; 0x48e <__ctors_end>
       2:	00 00       	nop
       4:	65 c2       	rjmp	.+1226   	; 0x4d0 <__bad_interrupt>
       6:	00 00       	nop
       8:	63 c2       	rjmp	.+1222   	; 0x4d0 <__bad_interrupt>
       a:	00 00       	nop
       c:	61 c2       	rjmp	.+1218   	; 0x4d0 <__bad_interrupt>
       e:	00 00       	nop
      10:	5f c2       	rjmp	.+1214   	; 0x4d0 <__bad_interrupt>
      12:	00 00       	nop
      14:	5d c2       	rjmp	.+1210   	; 0x4d0 <__bad_interrupt>
      16:	00 00       	nop
      18:	5b c2       	rjmp	.+1206   	; 0x4d0 <__bad_interrupt>
      1a:	00 00       	nop
      1c:	59 c2       	rjmp	.+1202   	; 0x4d0 <__bad_interrupt>
      1e:	00 00       	nop
      20:	57 c2       	rjmp	.+1198   	; 0x4d0 <__bad_interrupt>
      22:	00 00       	nop
      24:	55 c2       	rjmp	.+1194   	; 0x4d0 <__bad_interrupt>
      26:	00 00       	nop
      28:	53 c2       	rjmp	.+1190   	; 0x4d0 <__bad_interrupt>
      2a:	00 00       	nop
      2c:	51 c2       	rjmp	.+1186   	; 0x4d0 <__bad_interrupt>
      2e:	00 00       	nop
      30:	4f c2       	rjmp	.+1182   	; 0x4d0 <__bad_interrupt>
      32:	00 00       	nop
      34:	0c 94 64 0f 	jmp	0x1ec8	; 0x1ec8 <__vector_13>
      38:	0c 94 08 15 	jmp	0x2a10	; 0x2a10 <__vector_14>
      3c:	49 c2       	rjmp	.+1170   	; 0x4d0 <__bad_interrupt>
      3e:	00 00       	nop
      40:	47 c2       	rjmp	.+1166   	; 0x4d0 <__bad_interrupt>
      42:	00 00       	nop
      44:	45 c2       	rjmp	.+1162   	; 0x4d0 <__bad_interrupt>
      46:	00 00       	nop
      48:	43 c2       	rjmp	.+1158   	; 0x4d0 <__bad_interrupt>
      4a:	00 00       	nop
      4c:	41 c2       	rjmp	.+1154   	; 0x4d0 <__bad_interrupt>
      4e:	00 00       	nop
      50:	3f c2       	rjmp	.+1150   	; 0x4d0 <__bad_interrupt>
      52:	00 00       	nop
      54:	3d c2       	rjmp	.+1146   	; 0x4d0 <__bad_interrupt>
      56:	00 00       	nop
      58:	3b c2       	rjmp	.+1142   	; 0x4d0 <__bad_interrupt>
      5a:	00 00       	nop
      5c:	39 c2       	rjmp	.+1138   	; 0x4d0 <__bad_interrupt>
      5e:	00 00       	nop
      60:	37 c2       	rjmp	.+1134   	; 0x4d0 <__bad_interrupt>
      62:	00 00       	nop
      64:	35 c2       	rjmp	.+1130   	; 0x4d0 <__bad_interrupt>
      66:	00 00       	nop
      68:	33 c2       	rjmp	.+1126   	; 0x4d0 <__bad_interrupt>
      6a:	00 00       	nop
      6c:	31 c2       	rjmp	.+1122   	; 0x4d0 <__bad_interrupt>
      6e:	00 00       	nop
      70:	2f c2       	rjmp	.+1118   	; 0x4d0 <__bad_interrupt>
      72:	00 00       	nop
      74:	2d c2       	rjmp	.+1114   	; 0x4d0 <__bad_interrupt>
      76:	00 00       	nop
      78:	2b c2       	rjmp	.+1110   	; 0x4d0 <__bad_interrupt>
      7a:	00 00       	nop
      7c:	29 c2       	rjmp	.+1106   	; 0x4d0 <__bad_interrupt>
      7e:	00 00       	nop
      80:	27 c2       	rjmp	.+1102   	; 0x4d0 <__bad_interrupt>
      82:	00 00       	nop
      84:	25 c2       	rjmp	.+1098   	; 0x4d0 <__bad_interrupt>
      86:	00 00       	nop
      88:	23 c2       	rjmp	.+1094   	; 0x4d0 <__bad_interrupt>
      8a:	00 00       	nop
      8c:	21 c2       	rjmp	.+1090   	; 0x4d0 <__bad_interrupt>
      8e:	00 00       	nop
      90:	1f c2       	rjmp	.+1086   	; 0x4d0 <__bad_interrupt>
      92:	00 00       	nop
      94:	1d c2       	rjmp	.+1082   	; 0x4d0 <__bad_interrupt>
      96:	00 00       	nop
      98:	1b c2       	rjmp	.+1078   	; 0x4d0 <__bad_interrupt>
      9a:	00 00       	nop
      9c:	0c 94 14 0d 	jmp	0x1a28	; 0x1a28 <__vector_39>
      a0:	0c 94 46 0d 	jmp	0x1a8c	; 0x1a8c <__vector_40>
      a4:	0c 94 78 0d 	jmp	0x1af0	; 0x1af0 <__vector_41>
      a8:	0c 94 aa 0d 	jmp	0x1b54	; 0x1b54 <__vector_42>
      ac:	11 c2       	rjmp	.+1058   	; 0x4d0 <__bad_interrupt>
      ae:	00 00       	nop
      b0:	0f c2       	rjmp	.+1054   	; 0x4d0 <__bad_interrupt>
      b2:	00 00       	nop
      b4:	0d c2       	rjmp	.+1050   	; 0x4d0 <__bad_interrupt>
      b6:	00 00       	nop
      b8:	0c 94 8b 0f 	jmp	0x1f16	; 0x1f16 <__vector_46>
      bc:	09 c2       	rjmp	.+1042   	; 0x4d0 <__bad_interrupt>
      be:	00 00       	nop
      c0:	07 c2       	rjmp	.+1038   	; 0x4d0 <__bad_interrupt>
      c2:	00 00       	nop
      c4:	05 c2       	rjmp	.+1034   	; 0x4d0 <__bad_interrupt>
      c6:	00 00       	nop
      c8:	03 c2       	rjmp	.+1030   	; 0x4d0 <__bad_interrupt>
      ca:	00 00       	nop
      cc:	01 c2       	rjmp	.+1026   	; 0x4d0 <__bad_interrupt>
      ce:	00 00       	nop
      d0:	ff c1       	rjmp	.+1022   	; 0x4d0 <__bad_interrupt>
      d2:	00 00       	nop
      d4:	fd c1       	rjmp	.+1018   	; 0x4d0 <__bad_interrupt>
      d6:	00 00       	nop
      d8:	fb c1       	rjmp	.+1014   	; 0x4d0 <__bad_interrupt>
      da:	00 00       	nop
      dc:	f9 c1       	rjmp	.+1010   	; 0x4d0 <__bad_interrupt>
      de:	00 00       	nop
      e0:	f7 c1       	rjmp	.+1006   	; 0x4d0 <__bad_interrupt>
      e2:	00 00       	nop
      e4:	f5 c1       	rjmp	.+1002   	; 0x4d0 <__bad_interrupt>
      e6:	00 00       	nop
      e8:	f3 c1       	rjmp	.+998    	; 0x4d0 <__bad_interrupt>
      ea:	00 00       	nop
      ec:	f1 c1       	rjmp	.+994    	; 0x4d0 <__bad_interrupt>
      ee:	00 00       	nop
      f0:	ef c1       	rjmp	.+990    	; 0x4d0 <__bad_interrupt>
      f2:	00 00       	nop
      f4:	ed c1       	rjmp	.+986    	; 0x4d0 <__bad_interrupt>
      f6:	00 00       	nop
      f8:	eb c1       	rjmp	.+982    	; 0x4d0 <__bad_interrupt>
      fa:	00 00       	nop
      fc:	e9 c1       	rjmp	.+978    	; 0x4d0 <__bad_interrupt>
      fe:	00 00       	nop
     100:	e7 c1       	rjmp	.+974    	; 0x4d0 <__bad_interrupt>
     102:	00 00       	nop
     104:	e5 c1       	rjmp	.+970    	; 0x4d0 <__bad_interrupt>
     106:	00 00       	nop
     108:	e3 c1       	rjmp	.+966    	; 0x4d0 <__bad_interrupt>
     10a:	00 00       	nop
     10c:	e1 c1       	rjmp	.+962    	; 0x4d0 <__bad_interrupt>
     10e:	00 00       	nop
     110:	df c1       	rjmp	.+958    	; 0x4d0 <__bad_interrupt>
     112:	00 00       	nop
     114:	dd c1       	rjmp	.+954    	; 0x4d0 <__bad_interrupt>
     116:	00 00       	nop
     118:	db c1       	rjmp	.+950    	; 0x4d0 <__bad_interrupt>
     11a:	00 00       	nop
     11c:	0c 94 4c 0c 	jmp	0x1898	; 0x1898 <__vector_71>
     120:	0c 94 7e 0c 	jmp	0x18fc	; 0x18fc <__vector_72>
     124:	0c 94 b0 0c 	jmp	0x1960	; 0x1960 <__vector_73>
     128:	0c 94 e2 0c 	jmp	0x19c4	; 0x19c4 <__vector_74>
     12c:	d1 c1       	rjmp	.+930    	; 0x4d0 <__bad_interrupt>
     12e:	00 00       	nop
     130:	cf c1       	rjmp	.+926    	; 0x4d0 <__bad_interrupt>
     132:	00 00       	nop
     134:	cd c1       	rjmp	.+922    	; 0x4d0 <__bad_interrupt>
     136:	00 00       	nop
     138:	cb c1       	rjmp	.+918    	; 0x4d0 <__bad_interrupt>
     13a:	00 00       	nop
     13c:	c9 c1       	rjmp	.+914    	; 0x4d0 <__bad_interrupt>
     13e:	00 00       	nop
     140:	c7 c1       	rjmp	.+910    	; 0x4d0 <__bad_interrupt>
     142:	00 00       	nop
     144:	c5 c1       	rjmp	.+906    	; 0x4d0 <__bad_interrupt>
     146:	00 00       	nop
     148:	c3 c1       	rjmp	.+902    	; 0x4d0 <__bad_interrupt>
     14a:	00 00       	nop
     14c:	c1 c1       	rjmp	.+898    	; 0x4d0 <__bad_interrupt>
     14e:	00 00       	nop
     150:	bf c1       	rjmp	.+894    	; 0x4d0 <__bad_interrupt>
     152:	00 00       	nop
     154:	bd c1       	rjmp	.+890    	; 0x4d0 <__bad_interrupt>
     156:	00 00       	nop
     158:	bb c1       	rjmp	.+886    	; 0x4d0 <__bad_interrupt>
     15a:	00 00       	nop
     15c:	b9 c1       	rjmp	.+882    	; 0x4d0 <__bad_interrupt>
     15e:	00 00       	nop
     160:	b7 c1       	rjmp	.+878    	; 0x4d0 <__bad_interrupt>
     162:	00 00       	nop
     164:	b5 c1       	rjmp	.+874    	; 0x4d0 <__bad_interrupt>
     166:	00 00       	nop
     168:	b3 c1       	rjmp	.+870    	; 0x4d0 <__bad_interrupt>
     16a:	00 00       	nop
     16c:	b1 c1       	rjmp	.+866    	; 0x4d0 <__bad_interrupt>
     16e:	00 00       	nop
     170:	af c1       	rjmp	.+862    	; 0x4d0 <__bad_interrupt>
     172:	00 00       	nop
     174:	ad c1       	rjmp	.+858    	; 0x4d0 <__bad_interrupt>
     176:	00 00       	nop
     178:	ab c1       	rjmp	.+854    	; 0x4d0 <__bad_interrupt>
     17a:	00 00       	nop
     17c:	a9 c1       	rjmp	.+850    	; 0x4d0 <__bad_interrupt>
     17e:	00 00       	nop
     180:	a7 c1       	rjmp	.+846    	; 0x4d0 <__bad_interrupt>
     182:	00 00       	nop
     184:	a5 c1       	rjmp	.+842    	; 0x4d0 <__bad_interrupt>
     186:	00 00       	nop
     188:	a3 c1       	rjmp	.+838    	; 0x4d0 <__bad_interrupt>
     18a:	00 00       	nop
     18c:	a1 c1       	rjmp	.+834    	; 0x4d0 <__bad_interrupt>
     18e:	00 00       	nop
     190:	9f c1       	rjmp	.+830    	; 0x4d0 <__bad_interrupt>
     192:	00 00       	nop
     194:	9d c1       	rjmp	.+826    	; 0x4d0 <__bad_interrupt>
     196:	00 00       	nop
     198:	9b c1       	rjmp	.+822    	; 0x4d0 <__bad_interrupt>
     19a:	00 00       	nop
     19c:	99 c1       	rjmp	.+818    	; 0x4d0 <__bad_interrupt>
     19e:	00 00       	nop
     1a0:	97 c1       	rjmp	.+814    	; 0x4d0 <__bad_interrupt>
     1a2:	00 00       	nop
     1a4:	95 c1       	rjmp	.+810    	; 0x4d0 <__bad_interrupt>
     1a6:	00 00       	nop
     1a8:	93 c1       	rjmp	.+806    	; 0x4d0 <__bad_interrupt>
     1aa:	00 00       	nop
     1ac:	91 c1       	rjmp	.+802    	; 0x4d0 <__bad_interrupt>
     1ae:	00 00       	nop
     1b0:	8f c1       	rjmp	.+798    	; 0x4d0 <__bad_interrupt>
     1b2:	00 00       	nop
     1b4:	8d c1       	rjmp	.+794    	; 0x4d0 <__bad_interrupt>
     1b6:	00 00       	nop
     1b8:	8b c1       	rjmp	.+790    	; 0x4d0 <__bad_interrupt>
     1ba:	00 00       	nop
     1bc:	89 c1       	rjmp	.+786    	; 0x4d0 <__bad_interrupt>
     1be:	00 00       	nop
     1c0:	87 c1       	rjmp	.+782    	; 0x4d0 <__bad_interrupt>
     1c2:	00 00       	nop
     1c4:	85 c1       	rjmp	.+778    	; 0x4d0 <__bad_interrupt>
     1c6:	00 00       	nop
     1c8:	83 c1       	rjmp	.+774    	; 0x4d0 <__bad_interrupt>
     1ca:	00 00       	nop
     1cc:	81 c1       	rjmp	.+770    	; 0x4d0 <__bad_interrupt>
     1ce:	00 00       	nop
     1d0:	7f c1       	rjmp	.+766    	; 0x4d0 <__bad_interrupt>
     1d2:	00 00       	nop
     1d4:	7d c1       	rjmp	.+762    	; 0x4d0 <__bad_interrupt>
     1d6:	00 00       	nop
     1d8:	7b c1       	rjmp	.+758    	; 0x4d0 <__bad_interrupt>
     1da:	00 00       	nop
     1dc:	79 c1       	rjmp	.+754    	; 0x4d0 <__bad_interrupt>
     1de:	00 00       	nop
     1e0:	77 c1       	rjmp	.+750    	; 0x4d0 <__bad_interrupt>
     1e2:	00 00       	nop
     1e4:	75 c1       	rjmp	.+746    	; 0x4d0 <__bad_interrupt>
     1e6:	00 00       	nop
     1e8:	73 c1       	rjmp	.+742    	; 0x4d0 <__bad_interrupt>
     1ea:	00 00       	nop
     1ec:	71 c1       	rjmp	.+738    	; 0x4d0 <__bad_interrupt>
     1ee:	00 00       	nop
     1f0:	6f c1       	rjmp	.+734    	; 0x4d0 <__bad_interrupt>
     1f2:	00 00       	nop
     1f4:	6d c1       	rjmp	.+730    	; 0x4d0 <__bad_interrupt>
     1f6:	00 00       	nop
     1f8:	6b c1       	rjmp	.+726    	; 0x4d0 <__bad_interrupt>
	...

000001fc <__trampolines_end>:
     1fc:	00 00       	nop
     1fe:	00 00       	nop
     200:	00 00       	nop
     202:	00 20       	and	r0, r0
     204:	20 20       	and	r2, r0
     206:	20 20       	and	r2, r0
     208:	00 20       	and	r0, r0
     20a:	50 50       	subi	r21, 0x00	; 0
     20c:	50 00       	.word	0x0050	; ????
     20e:	00 00       	nop
     210:	00 50       	subi	r16, 0x00	; 0
     212:	50 f8       	bld	r5, 0
     214:	50 f8       	bld	r5, 0
     216:	50 50       	subi	r21, 0x00	; 0
     218:	20 78       	andi	r18, 0x80	; 128
     21a:	a0 70       	andi	r26, 0x00	; 0
     21c:	28 f0       	brcs	.+10     	; 0x228 <__trampolines_end+0x2c>
     21e:	20 c0       	rjmp	.+64     	; 0x260 <__trampolines_end+0x64>
     220:	c8 10       	cpse	r12, r8
     222:	20 40       	sbci	r18, 0x00	; 0
     224:	98 18       	sub	r9, r8
     226:	60 90 a0 40 	lds	r6, 0x40A0
     22a:	a8 90       	.word	0x90a8	; ????
     22c:	68 60       	ori	r22, 0x08	; 8
     22e:	20 40       	sbci	r18, 0x00	; 0
     230:	00 00       	nop
     232:	00 00       	nop
     234:	10 20       	and	r1, r0
     236:	40 40       	sbci	r20, 0x00	; 0
     238:	40 20       	and	r4, r0
     23a:	10 40       	sbci	r17, 0x00	; 0
     23c:	20 10       	cpse	r2, r0
     23e:	10 10       	cpse	r1, r0
     240:	20 40       	sbci	r18, 0x00	; 0
     242:	00 50       	subi	r16, 0x00	; 0
     244:	20 f8       	bld	r2, 0
     246:	20 50       	subi	r18, 0x00	; 0
     248:	00 00       	nop
     24a:	20 20       	and	r2, r0
     24c:	f8 20       	and	r15, r8
     24e:	20 00       	.word	0x0020	; ????
     250:	00 00       	nop
     252:	00 00       	nop
     254:	60 20       	and	r6, r0
     256:	40 00       	.word	0x0040	; ????
     258:	00 00       	nop
     25a:	f8 00       	.word	0x00f8	; ????
     25c:	00 00       	nop
     25e:	00 00       	nop
     260:	00 00       	nop
     262:	00 60       	ori	r16, 0x00	; 0
     264:	60 00       	.word	0x0060	; ????
     266:	08 10       	cpse	r0, r8
     268:	20 40       	sbci	r18, 0x00	; 0
     26a:	80 00       	.word	0x0080	; ????
     26c:	70 88       	ldd	r7, Z+16	; 0x10
     26e:	98 a8       	ldd	r9, Y+48	; 0x30
     270:	c8 88       	ldd	r12, Y+16	; 0x10
     272:	70 20       	and	r7, r0
     274:	60 20       	and	r6, r0
     276:	20 20       	and	r2, r0
     278:	20 70       	andi	r18, 0x00	; 0
     27a:	70 88       	ldd	r7, Z+16	; 0x10
     27c:	08 10       	cpse	r0, r8
     27e:	20 40       	sbci	r18, 0x00	; 0
     280:	f8 f8       	.word	0xf8f8	; ????
     282:	10 20       	and	r1, r0
     284:	10 08       	sbc	r1, r0
     286:	88 70       	andi	r24, 0x08	; 8
     288:	10 30       	cpi	r17, 0x00	; 0
     28a:	50 90 f8 10 	lds	r5, 0x10F8
     28e:	10 f8       	bld	r1, 0
     290:	80 f0       	brcs	.+32     	; 0x2b2 <__trampolines_end+0xb6>
     292:	08 08       	sbc	r0, r8
     294:	88 70       	andi	r24, 0x08	; 8
     296:	30 40       	sbci	r19, 0x00	; 0
     298:	80 f0       	brcs	.+32     	; 0x2ba <__trampolines_end+0xbe>
     29a:	88 88       	ldd	r8, Y+16	; 0x10
     29c:	70 f8       	bld	r7, 0
     29e:	08 10       	cpse	r0, r8
     2a0:	20 40       	sbci	r18, 0x00	; 0
     2a2:	40 40       	sbci	r20, 0x00	; 0
     2a4:	70 88       	ldd	r7, Z+16	; 0x10
     2a6:	88 70       	andi	r24, 0x08	; 8
     2a8:	88 88       	ldd	r8, Y+16	; 0x10
     2aa:	70 70       	andi	r23, 0x00	; 0
     2ac:	88 88       	ldd	r8, Y+16	; 0x10
     2ae:	78 08       	sbc	r7, r8
     2b0:	10 60       	ori	r17, 0x00	; 0
     2b2:	00 60       	ori	r16, 0x00	; 0
     2b4:	60 00       	.word	0x0060	; ????
     2b6:	60 60       	ori	r22, 0x00	; 0
     2b8:	00 00       	nop
     2ba:	60 60       	ori	r22, 0x00	; 0
     2bc:	00 60       	ori	r16, 0x00	; 0
     2be:	20 40       	sbci	r18, 0x00	; 0
     2c0:	08 10       	cpse	r0, r8
     2c2:	20 40       	sbci	r18, 0x00	; 0
     2c4:	20 10       	cpse	r2, r0
     2c6:	08 00       	.word	0x0008	; ????
     2c8:	00 f8       	bld	r0, 0
     2ca:	00 f8       	bld	r0, 0
     2cc:	00 00       	nop
     2ce:	80 40       	sbci	r24, 0x00	; 0
     2d0:	20 10       	cpse	r2, r0
     2d2:	20 40       	sbci	r18, 0x00	; 0
     2d4:	80 70       	andi	r24, 0x00	; 0
     2d6:	88 08       	sbc	r8, r8
     2d8:	10 20       	and	r1, r0
     2da:	00 20       	and	r0, r0
     2dc:	70 88       	ldd	r7, Z+16	; 0x10
     2de:	08 68       	ori	r16, 0x88	; 136
     2e0:	a8 a8       	ldd	r10, Y+48	; 0x30
     2e2:	70 70       	andi	r23, 0x00	; 0
     2e4:	88 88       	ldd	r8, Y+16	; 0x10
     2e6:	88 f8       	.word	0xf888	; ????
     2e8:	88 88       	ldd	r8, Y+16	; 0x10
     2ea:	f0 88       	ldd	r15, Z+16	; 0x10
     2ec:	88 f0       	brcs	.+34     	; 0x310 <__trampolines_end+0x114>
     2ee:	88 88       	ldd	r8, Y+16	; 0x10
     2f0:	f0 70       	andi	r31, 0x00	; 0
     2f2:	88 80       	ld	r8, Y
     2f4:	80 80       	ld	r8, Z
     2f6:	88 70       	andi	r24, 0x08	; 8
     2f8:	e0 90 88 88 	lds	r14, 0x8888
     2fc:	88 90       	.word	0x9088	; ????
     2fe:	e0 f8       	bld	r14, 0
     300:	80 80       	ld	r8, Z
     302:	f0 80       	ld	r15, Z
     304:	80 f8       	bld	r8, 0
     306:	f8 80       	ld	r15, Y
     308:	80 e0       	ldi	r24, 0x00	; 0
     30a:	80 80       	ld	r8, Z
     30c:	80 70       	andi	r24, 0x00	; 0
     30e:	88 80       	ld	r8, Y
     310:	80 98       	cbi	0x10, 0	; 16
     312:	88 70       	andi	r24, 0x08	; 8
     314:	88 88       	ldd	r8, Y+16	; 0x10
     316:	88 f8       	.word	0xf888	; ????
     318:	88 88       	ldd	r8, Y+16	; 0x10
     31a:	88 70       	andi	r24, 0x08	; 8
     31c:	20 20       	and	r2, r0
     31e:	20 20       	and	r2, r0
     320:	20 70       	andi	r18, 0x00	; 0
     322:	38 10       	cpse	r3, r8
     324:	10 10       	cpse	r1, r0
     326:	10 90 60 88 	lds	r1, 0x8860
     32a:	90 a0       	ldd	r9, Z+32	; 0x20
     32c:	c0 a0       	ldd	r12, Z+32	; 0x20
     32e:	90 88       	ldd	r9, Z+16	; 0x10
     330:	80 80       	ld	r8, Z
     332:	80 80       	ld	r8, Z
     334:	80 80       	ld	r8, Z
     336:	f8 88       	ldd	r15, Y+16	; 0x10
     338:	d8 a8       	ldd	r13, Y+48	; 0x30
     33a:	88 88       	ldd	r8, Y+16	; 0x10
     33c:	88 88       	ldd	r8, Y+16	; 0x10
     33e:	88 88       	ldd	r8, Y+16	; 0x10
     340:	c8 a8       	ldd	r12, Y+48	; 0x30
     342:	98 88       	ldd	r9, Y+16	; 0x10
     344:	88 70       	andi	r24, 0x08	; 8
     346:	88 88       	ldd	r8, Y+16	; 0x10
     348:	88 88       	ldd	r8, Y+16	; 0x10
     34a:	88 70       	andi	r24, 0x08	; 8
     34c:	f0 88       	ldd	r15, Z+16	; 0x10
     34e:	88 f0       	brcs	.+34     	; 0x372 <__trampolines_end+0x176>
     350:	80 80       	ld	r8, Z
     352:	80 70       	andi	r24, 0x00	; 0
     354:	88 88       	ldd	r8, Y+16	; 0x10
     356:	88 a8       	ldd	r8, Y+48	; 0x30
     358:	90 68       	ori	r25, 0x80	; 128
     35a:	f0 88       	ldd	r15, Z+16	; 0x10
     35c:	88 f0       	brcs	.+34     	; 0x380 <__trampolines_end+0x184>
     35e:	a0 90 88 78 	lds	r10, 0x7888
     362:	80 80       	ld	r8, Z
     364:	70 08       	sbc	r7, r0
     366:	08 f0       	brcs	.+2      	; 0x36a <__trampolines_end+0x16e>
     368:	f8 20       	and	r15, r8
     36a:	20 20       	and	r2, r0
     36c:	20 20       	and	r2, r0
     36e:	20 88       	ldd	r2, Z+16	; 0x10
     370:	88 88       	ldd	r8, Y+16	; 0x10
     372:	88 88       	ldd	r8, Y+16	; 0x10
     374:	88 70       	andi	r24, 0x08	; 8
     376:	88 88       	ldd	r8, Y+16	; 0x10
     378:	88 88       	ldd	r8, Y+16	; 0x10
     37a:	88 50       	subi	r24, 0x08	; 8
     37c:	20 88       	ldd	r2, Z+16	; 0x10
     37e:	88 88       	ldd	r8, Y+16	; 0x10
     380:	a8 a8       	ldd	r10, Y+48	; 0x30
     382:	d8 88       	ldd	r13, Y+16	; 0x10
     384:	88 88       	ldd	r8, Y+16	; 0x10
     386:	50 20       	and	r5, r0
     388:	50 88       	ldd	r5, Z+16	; 0x10
     38a:	88 88       	ldd	r8, Y+16	; 0x10
     38c:	88 50       	subi	r24, 0x08	; 8
     38e:	20 20       	and	r2, r0
     390:	20 20       	and	r2, r0
     392:	f8 08       	sbc	r15, r8
     394:	10 20       	and	r1, r0
     396:	40 80       	ld	r4, Z
     398:	f8 38       	cpi	r31, 0x88	; 136
     39a:	20 20       	and	r2, r0
     39c:	20 20       	and	r2, r0
     39e:	20 38       	cpi	r18, 0x80	; 128
     3a0:	00 80       	ld	r0, Z
     3a2:	40 20       	and	r4, r0
     3a4:	10 08       	sbc	r1, r0
     3a6:	00 e0       	ldi	r16, 0x00	; 0
     3a8:	20 20       	and	r2, r0
     3aa:	20 20       	and	r2, r0
     3ac:	20 e0       	ldi	r18, 0x00	; 0
     3ae:	20 50       	subi	r18, 0x00	; 0
     3b0:	88 00       	.word	0x0088	; ????
	...
     3ba:	00 f8       	bld	r0, 0
     3bc:	40 20       	and	r4, r0
     3be:	10 00       	.word	0x0010	; ????
     3c0:	00 00       	nop
     3c2:	00 00       	nop
     3c4:	00 70       	andi	r16, 0x00	; 0
     3c6:	08 78       	andi	r16, 0x88	; 136
     3c8:	88 78       	andi	r24, 0x88	; 136
     3ca:	80 80       	ld	r8, Z
     3cc:	b0 c8       	rjmp	.-3744   	; 0xfffff52e <__eeprom_end+0xff7ef52e>
     3ce:	88 88       	ldd	r8, Y+16	; 0x10
     3d0:	f0 00       	.word	0x00f0	; ????
     3d2:	00 70       	andi	r16, 0x00	; 0
     3d4:	80 80       	ld	r8, Z
     3d6:	88 70       	andi	r24, 0x08	; 8
     3d8:	08 08       	sbc	r0, r8
     3da:	68 98       	cbi	0x0d, 0	; 13
     3dc:	88 88       	ldd	r8, Y+16	; 0x10
     3de:	78 00       	.word	0x0078	; ????
     3e0:	00 70       	andi	r16, 0x00	; 0
     3e2:	88 f8       	.word	0xf888	; ????
     3e4:	80 70       	andi	r24, 0x00	; 0
     3e6:	30 48       	sbci	r19, 0x80	; 128
     3e8:	40 e0       	ldi	r20, 0x00	; 0
     3ea:	40 40       	sbci	r20, 0x00	; 0
     3ec:	40 00       	.word	0x0040	; ????
     3ee:	00 78       	andi	r16, 0x80	; 128
     3f0:	88 78       	andi	r24, 0x88	; 136
     3f2:	08 30       	cpi	r16, 0x08	; 8
     3f4:	80 80       	ld	r8, Z
     3f6:	b0 c8       	rjmp	.-3744   	; 0xfffff558 <__eeprom_end+0xff7ef558>
     3f8:	88 88       	ldd	r8, Y+16	; 0x10
     3fa:	88 20       	and	r8, r8
     3fc:	00 60       	ori	r16, 0x00	; 0
     3fe:	20 20       	and	r2, r0
     400:	20 70       	andi	r18, 0x00	; 0
     402:	10 00       	.word	0x0010	; ????
     404:	30 10       	cpse	r3, r0
     406:	10 90 60 40 	lds	r1, 0x4060
     40a:	40 48       	sbci	r20, 0x80	; 128
     40c:	50 60       	ori	r21, 0x00	; 0
     40e:	50 48       	sbci	r21, 0x80	; 128
     410:	60 20       	and	r6, r0
     412:	20 20       	and	r2, r0
     414:	20 20       	and	r2, r0
     416:	70 00       	.word	0x0070	; ????
     418:	00 d0       	rcall	.+0      	; 0x41a <__trampolines_end+0x21e>
     41a:	a8 a8       	ldd	r10, Y+48	; 0x30
     41c:	88 88       	ldd	r8, Y+16	; 0x10
     41e:	00 00       	nop
     420:	b0 c8       	rjmp	.-3744   	; 0xfffff582 <__eeprom_end+0xff7ef582>
     422:	88 88       	ldd	r8, Y+16	; 0x10
     424:	88 00       	.word	0x0088	; ????
     426:	00 70       	andi	r16, 0x00	; 0
     428:	88 88       	ldd	r8, Y+16	; 0x10
     42a:	88 70       	andi	r24, 0x08	; 8
     42c:	00 00       	nop
     42e:	f0 88       	ldd	r15, Z+16	; 0x10
     430:	f0 80       	ld	r15, Z
     432:	80 00       	.word	0x0080	; ????
     434:	00 68       	ori	r16, 0x80	; 128
     436:	98 78       	andi	r25, 0x88	; 136
     438:	08 08       	sbc	r0, r8
     43a:	00 00       	nop
     43c:	b0 c8       	rjmp	.-3744   	; 0xfffff59e <__eeprom_end+0xff7ef59e>
     43e:	80 80       	ld	r8, Z
     440:	80 00       	.word	0x0080	; ????
     442:	00 70       	andi	r16, 0x00	; 0
     444:	80 70       	andi	r24, 0x00	; 0
     446:	08 f0       	brcs	.+2      	; 0x44a <__trampolines_end+0x24e>
     448:	40 40       	sbci	r20, 0x00	; 0
     44a:	e0 40       	sbci	r30, 0x00	; 0
     44c:	40 48       	sbci	r20, 0x80	; 128
     44e:	30 00       	.word	0x0030	; ????
     450:	00 88       	ldd	r0, Z+16	; 0x10
     452:	88 88       	ldd	r8, Y+16	; 0x10
     454:	98 68       	ori	r25, 0x88	; 136
     456:	00 00       	nop
     458:	88 88       	ldd	r8, Y+16	; 0x10
     45a:	88 50       	subi	r24, 0x08	; 8
     45c:	20 00       	.word	0x0020	; ????
     45e:	00 88       	ldd	r0, Z+16	; 0x10
     460:	88 a8       	ldd	r8, Y+48	; 0x30
     462:	a8 50       	subi	r26, 0x08	; 8
     464:	00 00       	nop
     466:	88 50       	subi	r24, 0x08	; 8
     468:	20 50       	subi	r18, 0x00	; 0
     46a:	88 00       	.word	0x0088	; ????
     46c:	00 88       	ldd	r0, Z+16	; 0x10
     46e:	88 78       	andi	r24, 0x88	; 136
     470:	08 70       	andi	r16, 0x08	; 8
     472:	00 00       	nop
     474:	f8 10       	cpse	r15, r8
     476:	20 40       	sbci	r18, 0x00	; 0
     478:	f8 10       	cpse	r15, r8
     47a:	20 20       	and	r2, r0
     47c:	40 20       	and	r4, r0
     47e:	20 10       	cpse	r2, r0
     480:	20 20       	and	r2, r0
     482:	20 20       	and	r2, r0
     484:	20 20       	and	r2, r0
     486:	20 40       	sbci	r18, 0x00	; 0
     488:	20 20       	and	r2, r0
     48a:	10 20       	and	r1, r0
     48c:	20 40       	sbci	r18, 0x00	; 0

0000048e <__ctors_end>:
     48e:	11 24       	eor	r1, r1
     490:	1f be       	out	0x3f, r1	; 63
     492:	cf ef       	ldi	r28, 0xFF	; 255
     494:	cd bf       	out	0x3d, r28	; 61
     496:	df e5       	ldi	r29, 0x5F	; 95
     498:	de bf       	out	0x3e, r29	; 62
     49a:	00 e0       	ldi	r16, 0x00	; 0
     49c:	0c bf       	out	0x3c, r16	; 60

0000049e <__do_copy_data>:
     49e:	10 e2       	ldi	r17, 0x20	; 32
     4a0:	a0 e0       	ldi	r26, 0x00	; 0
     4a2:	b0 e2       	ldi	r27, 0x20	; 32
     4a4:	e8 ef       	ldi	r30, 0xF8	; 248
     4a6:	ff e3       	ldi	r31, 0x3F	; 63
     4a8:	00 e0       	ldi	r16, 0x00	; 0
     4aa:	0b bf       	out	0x3b, r16	; 59
     4ac:	02 c0       	rjmp	.+4      	; 0x4b2 <__do_copy_data+0x14>
     4ae:	07 90       	elpm	r0, Z+
     4b0:	0d 92       	st	X+, r0
     4b2:	a8 35       	cpi	r26, 0x58	; 88
     4b4:	b1 07       	cpc	r27, r17
     4b6:	d9 f7       	brne	.-10     	; 0x4ae <__do_copy_data+0x10>

000004b8 <__do_clear_bss>:
     4b8:	23 e2       	ldi	r18, 0x23	; 35
     4ba:	a8 e5       	ldi	r26, 0x58	; 88
     4bc:	b0 e2       	ldi	r27, 0x20	; 32
     4be:	01 c0       	rjmp	.+2      	; 0x4c2 <.do_clear_bss_start>

000004c0 <.do_clear_bss_loop>:
     4c0:	1d 92       	st	X+, r1

000004c2 <.do_clear_bss_start>:
     4c2:	a3 3f       	cpi	r26, 0xF3	; 243
     4c4:	b2 07       	cpc	r27, r18
     4c6:	e1 f7       	brne	.-8      	; 0x4c0 <.do_clear_bss_loop>
     4c8:	0e 94 51 1b 	call	0x36a2	; 0x36a2 <main>
     4cc:	0c 94 fa 1f 	jmp	0x3ff4	; 0x3ff4 <_exit>

000004d0 <__bad_interrupt>:
     4d0:	97 cd       	rjmp	.-1234   	; 0x0 <__vectors>

000004d2 <_1101010101_>:
     4d2:	80 93 a2 06 	sts	0x06A2, r24
     4d6:	60 93 a2 06 	sts	0x06A2, r22
     4da:	80 93 a5 06 	sts	0x06A5, r24
     4de:	60 93 a6 06 	sts	0x06A6, r22
     4e2:	60 93 a1 06 	sts	0x06A1, r22
     4e6:	08 95       	ret

000004e8 <_1101010111_>:
     4e8:	3f 93       	push	r19
     4ea:	60 93 a2 06 	sts	0x06A2, r22
     4ee:	80 93 a1 06 	sts	0x06A1, r24
     4f2:	80 93 a2 06 	sts	0x06A2, r24
     4f6:	60 93 a1 06 	sts	0x06A1, r22
     4fa:	3f 91       	pop	r19
     4fc:	80 91 a8 06 	lds	r24, 0x06A8
     500:	84 23       	and	r24, r20
     502:	08 95       	ret

00000504 <_1101010110_>:
     504:	80 93 a6 06 	sts	0x06A6, r24
     508:	80 93 a1 06 	sts	0x06A1, r24
     50c:	08 95       	ret

0000050e <burst_1_1_10_0_1>:
     50e:	a1 e0       	ldi	r26, 0x01	; 1
     510:	b0 e0       	ldi	r27, 0x00	; 0
     512:	ed e8       	ldi	r30, 0x8D	; 141
     514:	f2 e0       	ldi	r31, 0x02	; 2
     516:	0c 94 e4 1b 	jmp	0x37c8	; 0x37c8 <__prologue_saves__+0xc>
     51a:	e8 2f       	mov	r30, r24
     51c:	0f b7       	in	r16, 0x3f	; 63
     51e:	00 78       	andi	r16, 0x80	; 128
     520:	19 82       	std	Y+1, r1	; 0x01
     522:	80 91 59 20 	lds	r24, 0x2059
     526:	81 30       	cpi	r24, 0x01	; 1
     528:	19 f0       	breq	.+6      	; 0x530 <burst_1_1_10_0_1+0x22>
     52a:	81 e0       	ldi	r24, 0x01	; 1
     52c:	80 93 59 20 	sts	0x2059, r24
     530:	ce 2e       	mov	r12, r30
     532:	dd 24       	eor	r13, r13
     534:	f6 01       	movw	r30, r12
     536:	e5 56       	subi	r30, 0x65	; 101
     538:	ff 4d       	sbci	r31, 0xDF	; 223
     53a:	b0 80       	ld	r11, Z
     53c:	f6 01       	movw	r30, r12
     53e:	e1 56       	subi	r30, 0x61	; 97
     540:	ff 4d       	sbci	r31, 0xDF	; 223
     542:	a0 80       	ld	r10, Z
     544:	f8 94       	cli
     546:	bb 20       	and	r11, r11
     548:	09 f4       	brne	.+2      	; 0x54c <burst_1_1_10_0_1+0x3e>
     54a:	aa c0       	rjmp	.+340    	; 0x6a0 <burst_1_1_10_0_1+0x192>
     54c:	8b 2d       	mov	r24, r11
     54e:	da df       	rcall	.-76     	; 0x504 <_1101010110_>
     550:	8b 2d       	mov	r24, r11
     552:	6a 2d       	mov	r22, r10
     554:	be df       	rcall	.-132    	; 0x4d2 <_1101010101_>
     556:	1b 2d       	mov	r17, r11
     558:	ee 24       	eor	r14, r14
     55a:	ff 24       	eor	r15, r15
     55c:	60 e0       	ldi	r22, 0x00	; 0
     55e:	81 2c       	mov	r8, r1
     560:	30 e2       	ldi	r19, 0x20	; 32
     562:	93 2e       	mov	r9, r19
     564:	f5 fe       	sbrs	r15, 5
     566:	07 c0       	rjmp	.+14     	; 0x576 <burst_1_1_10_0_1+0x68>
     568:	90 91 9c 20 	lds	r25, 0x209C
     56c:	80 91 9b 20 	lds	r24, 0x209B
     570:	98 2b       	or	r25, r24
     572:	19 f5       	brne	.+70     	; 0x5ba <burst_1_1_10_0_1+0xac>
     574:	35 c0       	rjmp	.+106    	; 0x5e0 <burst_1_1_10_0_1+0xd2>
     576:	8f b7       	in	r24, 0x3f	; 63
     578:	80 2b       	or	r24, r16
     57a:	8f bf       	out	0x3f, r24	; 63
     57c:	00 00       	nop
     57e:	f8 94       	cli
     580:	8b 2d       	mov	r24, r11
     582:	6a 2d       	mov	r22, r10
     584:	41 2f       	mov	r20, r17
     586:	b0 df       	rcall	.-160    	; 0x4e8 <_1101010111_>
     588:	68 2f       	mov	r22, r24
     58a:	08 94       	sec
     58c:	e1 1c       	adc	r14, r1
     58e:	f1 1c       	adc	r15, r1
     590:	80 91 00 20 	lds	r24, 0x2000
     594:	8f 5f       	subi	r24, 0xFF	; 255
     596:	80 93 00 20 	sts	0x2000, r24
     59a:	82 30       	cpi	r24, 0x02	; 2
     59c:	30 f0       	brcs	.+12     	; 0x5aa <burst_1_1_10_0_1+0x9c>
     59e:	82 30       	cpi	r24, 0x02	; 2
     5a0:	21 f0       	breq	.+8      	; 0x5aa <burst_1_1_10_0_1+0x9c>
     5a2:	83 30       	cpi	r24, 0x03	; 3
     5a4:	11 f0       	breq	.+4      	; 0x5aa <burst_1_1_10_0_1+0x9c>
     5a6:	10 92 00 20 	sts	0x2000, r1
     5aa:	66 23       	and	r22, r22
     5ac:	d9 f2       	breq	.-74     	; 0x564 <burst_1_1_10_0_1+0x56>
     5ae:	20 91 9c 20 	lds	r18, 0x209C
     5b2:	80 91 9b 20 	lds	r24, 0x209B
     5b6:	28 2b       	or	r18, r24
     5b8:	15 c0       	rjmp	.+42     	; 0x5e4 <burst_1_1_10_0_1+0xd6>
     5ba:	41 2f       	mov	r20, r17
     5bc:	80 e0       	ldi	r24, 0x00	; 0
     5be:	40 ff       	sbrs	r20, 0
     5c0:	09 c0       	rjmp	.+18     	; 0x5d4 <burst_1_1_10_0_1+0xc6>
     5c2:	e8 2f       	mov	r30, r24
     5c4:	f0 e0       	ldi	r31, 0x00	; 0
     5c6:	ee 0f       	add	r30, r30
     5c8:	ff 1f       	adc	r31, r31
     5ca:	ec 59       	subi	r30, 0x9C	; 156
     5cc:	ff 4d       	sbci	r31, 0xDF	; 223
     5ce:	80 82       	st	Z, r8
     5d0:	91 82       	std	Z+1, r9	; 0x01
     5d2:	01 c0       	rjmp	.+2      	; 0x5d6 <burst_1_1_10_0_1+0xc8>
     5d4:	90 fd       	sbrc	r25, 0
     5d6:	8f 5f       	subi	r24, 0xFF	; 255
     5d8:	96 95       	lsr	r25
     5da:	46 95       	lsr	r20
     5dc:	99 23       	and	r25, r25
     5de:	79 f7       	brne	.-34     	; 0x5be <burst_1_1_10_0_1+0xb0>
     5e0:	10 e0       	ldi	r17, 0x00	; 0
     5e2:	20 e0       	ldi	r18, 0x00	; 0
     5e4:	8f b7       	in	r24, 0x3f	; 63
     5e6:	80 2b       	or	r24, r16
     5e8:	8f bf       	out	0x3f, r24	; 63
     5ea:	10 92 5a 20 	sts	0x205A, r1
     5ee:	22 23       	and	r18, r18
     5f0:	09 f4       	brne	.+2      	; 0x5f4 <burst_1_1_10_0_1+0xe6>
     5f2:	3f c0       	rjmp	.+126    	; 0x672 <burst_1_1_10_0_1+0x164>
     5f4:	11 23       	and	r17, r17
     5f6:	09 f4       	brne	.+2      	; 0x5fa <burst_1_1_10_0_1+0xec>
     5f8:	3c c0       	rjmp	.+120    	; 0x672 <burst_1_1_10_0_1+0x164>
     5fa:	30 91 a0 20 	lds	r19, 0x20A0
     5fe:	80 91 9f 20 	lds	r24, 0x209F
     602:	38 2b       	or	r19, r24
     604:	56 2f       	mov	r21, r22
     606:	90 e0       	ldi	r25, 0x00	; 0
     608:	80 e0       	ldi	r24, 0x00	; 0
     60a:	70 e0       	ldi	r23, 0x00	; 0
     60c:	40 e0       	ldi	r20, 0x00	; 0
     60e:	23 c0       	rjmp	.+70     	; 0x656 <burst_1_1_10_0_1+0x148>
     610:	50 fd       	sbrc	r21, 0
     612:	17 c0       	rjmp	.+46     	; 0x642 <burst_1_1_10_0_1+0x134>
     614:	19 c0       	rjmp	.+50     	; 0x648 <burst_1_1_10_0_1+0x13a>
     616:	30 ff       	sbrs	r19, 0
     618:	13 c0       	rjmp	.+38     	; 0x640 <burst_1_1_10_0_1+0x132>
     61a:	98 17       	cp	r25, r24
     61c:	81 f4       	brne	.+32     	; 0x63e <burst_1_1_10_0_1+0x130>
     61e:	e4 2f       	mov	r30, r20
     620:	f0 e0       	ldi	r31, 0x00	; 0
     622:	ee 0f       	add	r30, r30
     624:	ff 1f       	adc	r31, r31
     626:	ec 59       	subi	r30, 0x9C	; 156
     628:	ff 4d       	sbci	r31, 0xDF	; 223
     62a:	e0 82       	st	Z, r14
     62c:	f1 82       	std	Z+1, r15	; 0x01
     62e:	85 2f       	mov	r24, r21
     630:	8e 7f       	andi	r24, 0xFE	; 254
     632:	19 f4       	brne	.+6      	; 0x63a <burst_1_1_10_0_1+0x12c>
     634:	89 2f       	mov	r24, r25
     636:	71 e0       	ldi	r23, 0x01	; 1
     638:	08 c0       	rjmp	.+16     	; 0x64a <burst_1_1_10_0_1+0x13c>
     63a:	89 2f       	mov	r24, r25
     63c:	06 c0       	rjmp	.+12     	; 0x64a <burst_1_1_10_0_1+0x13c>
     63e:	8f 5f       	subi	r24, 0xFF	; 255
     640:	36 95       	lsr	r19
     642:	33 23       	and	r19, r19
     644:	41 f7       	brne	.-48     	; 0x616 <burst_1_1_10_0_1+0x108>
     646:	01 c0       	rjmp	.+2      	; 0x64a <burst_1_1_10_0_1+0x13c>
     648:	20 fd       	sbrc	r18, 0
     64a:	9f 5f       	subi	r25, 0xFF	; 255
     64c:	20 fd       	sbrc	r18, 0
     64e:	4f 5f       	subi	r20, 0xFF	; 255
     650:	56 95       	lsr	r21
     652:	26 95       	lsr	r18
     654:	11 f0       	breq	.+4      	; 0x65a <burst_1_1_10_0_1+0x14c>
     656:	55 23       	and	r21, r21
     658:	d9 f6       	brne	.-74     	; 0x610 <burst_1_1_10_0_1+0x102>
     65a:	40 93 5a 20 	sts	0x205A, r20
     65e:	60 95       	com	r22
     660:	16 23       	and	r17, r22
     662:	71 30       	cpi	r23, 0x01	; 1
     664:	21 f4       	brne	.+8      	; 0x66e <burst_1_1_10_0_1+0x160>
     666:	11 23       	and	r17, r17
     668:	11 f4       	brne	.+4      	; 0x66e <burst_1_1_10_0_1+0x160>
     66a:	ee 24       	eor	r14, r14
     66c:	ff 24       	eor	r15, r15
     66e:	60 e0       	ldi	r22, 0x00	; 0
     670:	13 c0       	rjmp	.+38     	; 0x698 <burst_1_1_10_0_1+0x18a>
     672:	80 91 9c 20 	lds	r24, 0x209C
     676:	90 91 9b 20 	lds	r25, 0x209B
     67a:	89 2b       	or	r24, r25
     67c:	89 83       	std	Y+1, r24	; 0x01
     67e:	90 e0       	ldi	r25, 0x00	; 0
     680:	06 c0       	rjmp	.+12     	; 0x68e <burst_1_1_10_0_1+0x180>
     682:	89 81       	ldd	r24, Y+1	; 0x01
     684:	80 fd       	sbrc	r24, 0
     686:	9f 5f       	subi	r25, 0xFF	; 255
     688:	89 81       	ldd	r24, Y+1	; 0x01
     68a:	86 95       	lsr	r24
     68c:	89 83       	std	Y+1, r24	; 0x01
     68e:	89 81       	ldd	r24, Y+1	; 0x01
     690:	88 23       	and	r24, r24
     692:	b9 f7       	brne	.-18     	; 0x682 <burst_1_1_10_0_1+0x174>
     694:	90 93 5a 20 	sts	0x205A, r25
     698:	f8 94       	cli
     69a:	11 23       	and	r17, r17
     69c:	09 f0       	breq	.+2      	; 0x6a0 <burst_1_1_10_0_1+0x192>
     69e:	62 cf       	rjmp	.-316    	; 0x564 <burst_1_1_10_0_1+0x56>
     6a0:	8b e9       	ldi	r24, 0x9B	; 155
     6a2:	90 e2       	ldi	r25, 0x20	; 32
     6a4:	c8 0e       	add	r12, r24
     6a6:	d9 1e       	adc	r13, r25
     6a8:	f6 01       	movw	r30, r12
     6aa:	80 81       	ld	r24, Z
     6ac:	2b df       	rcall	.-426    	; 0x504 <_1101010110_>
     6ae:	10 92 58 20 	sts	0x2058, r1
     6b2:	8f b7       	in	r24, 0x3f	; 63
     6b4:	08 2b       	or	r16, r24
     6b6:	0f bf       	out	0x3f, r16	; 63
     6b8:	21 96       	adiw	r28, 0x01	; 1
     6ba:	ec e0       	ldi	r30, 0x0C	; 12
     6bc:	0c 94 fd 1b 	jmp	0x37fa	; 0x37fa <__epilogue_restores__+0xc>

000006c0 <qt_get_library_sig>:
     6c0:	fc 01       	movw	r30, r24
     6c2:	80 e2       	ldi	r24, 0x20	; 32
     6c4:	90 e0       	ldi	r25, 0x00	; 0
     6c6:	80 83       	st	Z, r24
     6c8:	91 83       	std	Z+1, r25	; 0x01
     6ca:	12 82       	std	Z+2, r1	; 0x02
     6cc:	13 82       	std	Z+3, r1	; 0x03
     6ce:	80 e4       	ldi	r24, 0x40	; 64
     6d0:	94 e0       	ldi	r25, 0x04	; 4
     6d2:	84 83       	std	Z+4, r24	; 0x04
     6d4:	95 83       	std	Z+5, r25	; 0x05
     6d6:	08 95       	ret

000006d8 <qt_enable_key>:
     6d8:	90 91 95 20 	lds	r25, 0x2095
     6dc:	a9 2f       	mov	r26, r25
     6de:	b0 e0       	ldi	r27, 0x00	; 0
     6e0:	fd 01       	movw	r30, r26
     6e2:	ee 0f       	add	r30, r30
     6e4:	ff 1f       	adc	r31, r31
     6e6:	ea 0f       	add	r30, r26
     6e8:	fb 1f       	adc	r31, r27
     6ea:	ee 0f       	add	r30, r30
     6ec:	ff 1f       	adc	r31, r31
     6ee:	e3 58       	subi	r30, 0x83	; 131
     6f0:	ff 4d       	sbci	r31, 0xDF	; 223
     6f2:	43 83       	std	Z+3, r20	; 0x03
     6f4:	67 70       	andi	r22, 0x07	; 7
     6f6:	85 83       	std	Z+5, r24	; 0x05
     6f8:	23 70       	andi	r18, 0x03	; 3
     6fa:	66 0f       	add	r22, r22
     6fc:	66 0f       	add	r22, r22
     6fe:	66 0f       	add	r22, r22
     700:	26 2b       	or	r18, r22
     702:	24 83       	std	Z+4, r18	; 0x04
     704:	9f 5f       	subi	r25, 0xFF	; 255
     706:	90 93 95 20 	sts	0x2095, r25
     70a:	08 95       	ret

0000070c <qt_get_sensor_delta>:
     70c:	1f 93       	push	r17
     70e:	cf 93       	push	r28
     710:	df 93       	push	r29
     712:	28 2f       	mov	r18, r24
     714:	c8 2f       	mov	r28, r24
     716:	d0 e0       	ldi	r29, 0x00	; 0
     718:	fe 01       	movw	r30, r28
     71a:	ee 0f       	add	r30, r30
     71c:	ff 1f       	adc	r31, r31
     71e:	ec 0f       	add	r30, r28
     720:	fd 1f       	adc	r31, r29
     722:	ee 0f       	add	r30, r30
     724:	ff 1f       	adc	r31, r31
     726:	e3 58       	subi	r30, 0x83	; 131
     728:	ff 4d       	sbci	r31, 0xDF	; 223
     72a:	35 81       	ldd	r19, Z+5	; 0x05
     72c:	83 81       	ldd	r24, Z+3	; 0x03
     72e:	90 e0       	ldi	r25, 0x00	; 0
     730:	00 90 5d 20 	lds	r0, 0x205D
     734:	02 c0       	rjmp	.+4      	; 0x73a <qt_get_sensor_delta+0x2e>
     736:	95 95       	asr	r25
     738:	87 95       	ror	r24
     73a:	0a 94       	dec	r0
     73c:	e2 f7       	brpl	.-8      	; 0x736 <qt_get_sensor_delta+0x2a>
     73e:	18 2f       	mov	r17, r24
     740:	84 30       	cpi	r24, 0x04	; 4
     742:	08 f4       	brcc	.+2      	; 0x746 <qt_get_sensor_delta+0x3a>
     744:	14 e0       	ldi	r17, 0x04	; 4
     746:	80 91 95 20 	lds	r24, 0x2095
     74a:	28 17       	cp	r18, r24
     74c:	18 f0       	brcs	.+6      	; 0x754 <qt_get_sensor_delta+0x48>
     74e:	20 e0       	ldi	r18, 0x00	; 0
     750:	30 e0       	ldi	r19, 0x00	; 0
     752:	2d c0       	rjmp	.+90     	; 0x7ae <qt_get_sensor_delta+0xa2>
     754:	83 2f       	mov	r24, r19
     756:	1d d1       	rcall	.+570    	; 0x992 <get_channel_delta>
     758:	9c 01       	movw	r18, r24
     75a:	41 2f       	mov	r20, r17
     75c:	50 e0       	ldi	r21, 0x00	; 0
     75e:	16 95       	lsr	r17
     760:	16 95       	lsr	r17
     762:	81 2f       	mov	r24, r17
     764:	90 e0       	ldi	r25, 0x00	; 0
     766:	84 1b       	sub	r24, r20
     768:	95 0b       	sbc	r25, r21
     76a:	82 17       	cp	r24, r18
     76c:	93 07       	cpc	r25, r19
     76e:	64 f4       	brge	.+24     	; 0x788 <qt_get_sensor_delta+0x7c>
     770:	fe 01       	movw	r30, r28
     772:	ee 0f       	add	r30, r30
     774:	ff 1f       	adc	r31, r31
     776:	ec 0f       	add	r30, r28
     778:	fd 1f       	adc	r31, r29
     77a:	ee 0f       	add	r30, r30
     77c:	ff 1f       	adc	r31, r31
     77e:	e3 58       	subi	r30, 0x83	; 131
     780:	ff 4d       	sbci	r31, 0xDF	; 223
     782:	84 81       	ldd	r24, Z+4	; 0x04
     784:	8b 7f       	andi	r24, 0xFB	; 251
     786:	84 83       	std	Z+4, r24	; 0x04
     788:	88 27       	eor	r24, r24
     78a:	99 27       	eor	r25, r25
     78c:	84 1b       	sub	r24, r20
     78e:	95 0b       	sbc	r25, r21
     790:	82 17       	cp	r24, r18
     792:	93 07       	cpc	r25, r19
     794:	64 f0       	brlt	.+24     	; 0x7ae <qt_get_sensor_delta+0xa2>
     796:	fe 01       	movw	r30, r28
     798:	ee 0f       	add	r30, r30
     79a:	ff 1f       	adc	r31, r31
     79c:	ec 0f       	add	r30, r28
     79e:	fd 1f       	adc	r31, r29
     7a0:	ee 0f       	add	r30, r30
     7a2:	ff 1f       	adc	r31, r31
     7a4:	e3 58       	subi	r30, 0x83	; 131
     7a6:	ff 4d       	sbci	r31, 0xDF	; 223
     7a8:	84 81       	ldd	r24, Z+4	; 0x04
     7aa:	84 60       	ori	r24, 0x04	; 4
     7ac:	84 83       	std	Z+4, r24	; 0x04
     7ae:	c9 01       	movw	r24, r18
     7b0:	df 91       	pop	r29
     7b2:	cf 91       	pop	r28
     7b4:	1f 91       	pop	r17
     7b6:	08 95       	ret

000007b8 <qt_measure_sensors>:
     7b8:	ff 92       	push	r15
     7ba:	0f 93       	push	r16
     7bc:	1f 93       	push	r17
     7be:	cf 93       	push	r28
     7c0:	df 93       	push	r29
     7c2:	10 92 75 20 	sts	0x2075, r1
     7c6:	10 92 76 20 	sts	0x2076, r1
     7ca:	20 91 79 20 	lds	r18, 0x2079
     7ce:	30 91 7a 20 	lds	r19, 0x207A
     7d2:	80 93 79 20 	sts	0x2079, r24
     7d6:	90 93 7a 20 	sts	0x207A, r25
     7da:	40 91 7b 20 	lds	r20, 0x207B
     7de:	50 91 7c 20 	lds	r21, 0x207C
     7e2:	42 1b       	sub	r20, r18
     7e4:	53 0b       	sbc	r21, r19
     7e6:	48 0f       	add	r20, r24
     7e8:	59 1f       	adc	r21, r25
     7ea:	ff 24       	eor	r15, r15
     7ec:	03 c0       	rjmp	.+6      	; 0x7f4 <qt_measure_sensors+0x3c>
     7ee:	f3 94       	inc	r15
     7f0:	48 5c       	subi	r20, 0xC8	; 200
     7f2:	50 40       	sbci	r21, 0x00	; 0
     7f4:	48 3c       	cpi	r20, 0xC8	; 200
     7f6:	51 05       	cpc	r21, r1
     7f8:	d0 f7       	brcc	.-12     	; 0x7ee <qt_measure_sensors+0x36>
     7fa:	40 93 7b 20 	sts	0x207B, r20
     7fe:	50 93 7c 20 	sts	0x207C, r21
     802:	80 91 96 20 	lds	r24, 0x2096
     806:	88 23       	and	r24, r24
     808:	41 f0       	breq	.+16     	; 0x81a <qt_measure_sensors+0x62>
     80a:	8f 15       	cp	r24, r15
     80c:	18 f4       	brcc	.+6      	; 0x814 <qt_measure_sensors+0x5c>
     80e:	10 92 96 20 	sts	0x2096, r1
     812:	03 c0       	rjmp	.+6      	; 0x81a <qt_measure_sensors+0x62>
     814:	8f 19       	sub	r24, r15
     816:	80 93 96 20 	sts	0x2096, r24
     81a:	c3 d3       	rcall	.+1926   	; 0xfa2 <burst>
     81c:	e0 91 77 20 	lds	r30, 0x2077
     820:	f0 91 78 20 	lds	r31, 0x2078
     824:	30 97       	sbiw	r30, 0x00	; 0
     826:	09 f0       	breq	.+2      	; 0x82a <qt_measure_sensors+0x72>
     828:	19 95       	eicall
     82a:	10 e0       	ldi	r17, 0x00	; 0
     82c:	00 e0       	ldi	r16, 0x00	; 0
     82e:	05 c0       	rjmp	.+10     	; 0x83a <qt_measure_sensors+0x82>
     830:	81 2f       	mov	r24, r17
     832:	6f 2d       	mov	r22, r15
     834:	c3 d0       	rcall	.+390    	; 0x9bc <process_sensor>
     836:	08 2b       	or	r16, r24
     838:	1f 5f       	subi	r17, 0xFF	; 255
     83a:	60 91 95 20 	lds	r22, 0x2095
     83e:	16 17       	cp	r17, r22
     840:	b8 f3       	brcs	.-18     	; 0x830 <qt_measure_sensors+0x78>
     842:	00 23       	and	r16, r16
     844:	49 f0       	breq	.+18     	; 0x858 <qt_measure_sensors+0xa0>
     846:	80 91 75 20 	lds	r24, 0x2075
     84a:	90 91 76 20 	lds	r25, 0x2076
     84e:	91 60       	ori	r25, 0x01	; 1
     850:	80 93 75 20 	sts	0x2075, r24
     854:	90 93 76 20 	sts	0x2076, r25
     858:	10 92 74 20 	sts	0x2074, r1
     85c:	ad e7       	ldi	r26, 0x7D	; 125
     85e:	b0 e2       	ldi	r27, 0x20	; 32
     860:	30 e0       	ldi	r19, 0x00	; 0
     862:	41 e0       	ldi	r20, 0x01	; 1
     864:	50 e0       	ldi	r21, 0x00	; 0
     866:	17 c0       	rjmp	.+46     	; 0x896 <qt_measure_sensors+0xde>
     868:	8c 91       	ld	r24, X
     86a:	88 71       	andi	r24, 0x18	; 24
     86c:	91 f0       	breq	.+36     	; 0x892 <qt_measure_sensors+0xda>
     86e:	e3 2f       	mov	r30, r19
     870:	e6 95       	lsr	r30
     872:	e6 95       	lsr	r30
     874:	e6 95       	lsr	r30
     876:	f0 e0       	ldi	r31, 0x00	; 0
     878:	ec 59       	subi	r30, 0x9C	; 156
     87a:	ff 4d       	sbci	r31, 0xDF	; 223
     87c:	83 2f       	mov	r24, r19
     87e:	87 70       	andi	r24, 0x07	; 7
     880:	ea 01       	movw	r28, r20
     882:	02 c0       	rjmp	.+4      	; 0x888 <qt_measure_sensors+0xd0>
     884:	cc 0f       	add	r28, r28
     886:	dd 1f       	adc	r29, r29
     888:	8a 95       	dec	r24
     88a:	e2 f7       	brpl	.-8      	; 0x884 <qt_measure_sensors+0xcc>
     88c:	20 89       	ldd	r18, Z+16	; 0x10
     88e:	2c 2b       	or	r18, r28
     890:	20 8b       	std	Z+16, r18	; 0x10
     892:	3f 5f       	subi	r19, 0xFF	; 255
     894:	16 96       	adiw	r26, 0x06	; 6
     896:	36 17       	cp	r19, r22
     898:	38 f3       	brcs	.-50     	; 0x868 <qt_measure_sensors+0xb0>
     89a:	80 91 75 20 	lds	r24, 0x2075
     89e:	90 91 76 20 	lds	r25, 0x2076
     8a2:	cd b7       	in	r28, 0x3d	; 61
     8a4:	de b7       	in	r29, 0x3e	; 62
     8a6:	e5 e0       	ldi	r30, 0x05	; 5
     8a8:	0c 94 04 1c 	jmp	0x3808	; 0x3808 <__epilogue_restores__+0x1a>

000008ac <qt_reset_sensing>:
     8ac:	10 92 95 20 	sts	0x2095, r1
     8b0:	84 e0       	ldi	r24, 0x04	; 4
     8b2:	80 93 5e 20 	sts	0x205E, r24
     8b6:	94 e1       	ldi	r25, 0x14	; 20
     8b8:	90 93 61 20 	sts	0x2061, r25
     8bc:	85 e0       	ldi	r24, 0x05	; 5
     8be:	80 93 62 20 	sts	0x2062, r24
     8c2:	10 92 60 20 	sts	0x2060, r1
     8c6:	90 93 5f 20 	sts	0x205F, r25
     8ca:	81 e0       	ldi	r24, 0x01	; 1
     8cc:	80 93 5d 20 	sts	0x205D, r24
     8d0:	83 e0       	ldi	r24, 0x03	; 3
     8d2:	80 93 63 20 	sts	0x2063, r24
     8d6:	54 d3       	rcall	.+1704   	; 0xf80 <burst_reset>
     8d8:	10 92 77 20 	sts	0x2077, r1
     8dc:	10 92 78 20 	sts	0x2078, r1
     8e0:	08 95       	ret

000008e2 <qt_calibrate_sensing>:
     8e2:	1f 93       	push	r17
     8e4:	10 e0       	ldi	r17, 0x00	; 0
     8e6:	03 c0       	rjmp	.+6      	; 0x8ee <qt_calibrate_sensing+0xc>
     8e8:	81 2f       	mov	r24, r17
     8ea:	27 d0       	rcall	.+78     	; 0x93a <start_cal_sensor>
     8ec:	1f 5f       	subi	r17, 0xFF	; 255
     8ee:	80 91 95 20 	lds	r24, 0x2095
     8f2:	18 17       	cp	r17, r24
     8f4:	c8 f3       	brcs	.-14     	; 0x8e8 <qt_calibrate_sensing+0x6>
     8f6:	1f 91       	pop	r17
     8f8:	08 95       	ret

000008fa <qt_init_sensing_with_burst>:
     8fa:	ef 92       	push	r14
     8fc:	ff 92       	push	r15
     8fe:	1f 93       	push	r17
     900:	cf 93       	push	r28
     902:	df 93       	push	r29
     904:	ec 01       	movw	r28, r24
     906:	7b 01       	movw	r14, r22
     908:	10 e0       	ldi	r17, 0x00	; 0
     90a:	03 c0       	rjmp	.+6      	; 0x912 <qt_init_sensing_with_burst+0x18>
     90c:	81 2f       	mov	r24, r17
     90e:	15 d0       	rcall	.+42     	; 0x93a <start_cal_sensor>
     910:	1f 5f       	subi	r17, 0xFF	; 255
     912:	80 91 95 20 	lds	r24, 0x2095
     916:	18 17       	cp	r17, r24
     918:	c8 f3       	brcs	.-14     	; 0x90c <qt_init_sensing_with_burst+0x12>
     91a:	10 92 79 20 	sts	0x2079, r1
     91e:	10 92 7a 20 	sts	0x207A, r1
     922:	c0 93 5b 20 	sts	0x205B, r28
     926:	d0 93 5c 20 	sts	0x205C, r29
     92a:	c7 01       	movw	r24, r14
     92c:	24 d3       	rcall	.+1608   	; 0xf76 <burst_init>
     92e:	df 91       	pop	r29
     930:	cf 91       	pop	r28
     932:	1f 91       	pop	r17
     934:	ff 90       	pop	r15
     936:	ef 90       	pop	r14
     938:	08 95       	ret

0000093a <start_cal_sensor>:
     93a:	90 e0       	ldi	r25, 0x00	; 0
     93c:	ed e7       	ldi	r30, 0x7D	; 125
     93e:	f0 e2       	ldi	r31, 0x20	; 32
     940:	9c 01       	movw	r18, r24
     942:	22 0f       	add	r18, r18
     944:	33 1f       	adc	r19, r19
     946:	28 0f       	add	r18, r24
     948:	39 1f       	adc	r19, r25
     94a:	d9 01       	movw	r26, r18
     94c:	aa 0f       	add	r26, r26
     94e:	bb 1f       	adc	r27, r27
     950:	ae 0f       	add	r26, r30
     952:	bf 1f       	adc	r27, r31
     954:	15 96       	adiw	r26, 0x05	; 5
     956:	4c 91       	ld	r20, X
     958:	15 97       	sbiw	r26, 0x05	; 5
     95a:	80 91 75 20 	lds	r24, 0x2075
     95e:	90 91 76 20 	lds	r25, 0x2076
     962:	82 60       	ori	r24, 0x02	; 2
     964:	80 93 75 20 	sts	0x2075, r24
     968:	90 93 76 20 	sts	0x2076, r25
     96c:	2f 5f       	subi	r18, 0xFF	; 255
     96e:	3f 4f       	sbci	r19, 0xFF	; 255
     970:	22 0f       	add	r18, r18
     972:	33 1f       	adc	r19, r19
     974:	e2 0f       	add	r30, r18
     976:	f3 1f       	adc	r31, r19
     978:	10 82       	st	Z, r1
     97a:	e7 e9       	ldi	r30, 0x97	; 151
     97c:	f0 e2       	ldi	r31, 0x20	; 32
     97e:	e4 0f       	add	r30, r20
     980:	f1 1d       	adc	r31, r1
     982:	80 e8       	ldi	r24, 0x80	; 128
     984:	80 83       	st	Z, r24
     986:	81 e0       	ldi	r24, 0x01	; 1
     988:	8c 93       	st	X, r24
     98a:	8f e0       	ldi	r24, 0x0F	; 15
     98c:	11 96       	adiw	r26, 0x01	; 1
     98e:	8c 93       	st	X, r24
     990:	08 95       	ret

00000992 <get_channel_delta>:
     992:	90 e0       	ldi	r25, 0x00	; 0
     994:	fc 01       	movw	r30, r24
     996:	34 96       	adiw	r30, 0x04	; 4
     998:	a4 e6       	ldi	r26, 0x64	; 100
     99a:	b0 e2       	ldi	r27, 0x20	; 32
     99c:	ee 0f       	add	r30, r30
     99e:	ff 1f       	adc	r31, r31
     9a0:	ea 0f       	add	r30, r26
     9a2:	fb 1f       	adc	r31, r27
     9a4:	88 0f       	add	r24, r24
     9a6:	99 1f       	adc	r25, r25
     9a8:	a8 0f       	add	r26, r24
     9aa:	b9 1f       	adc	r27, r25
     9ac:	20 81       	ld	r18, Z
     9ae:	31 81       	ldd	r19, Z+1	; 0x01
     9b0:	8d 91       	ld	r24, X+
     9b2:	9c 91       	ld	r25, X
     9b4:	28 1b       	sub	r18, r24
     9b6:	39 0b       	sbc	r19, r25
     9b8:	c9 01       	movw	r24, r18
     9ba:	08 95       	ret

000009bc <process_sensor>:
     9bc:	a0 e0       	ldi	r26, 0x00	; 0
     9be:	b0 e0       	ldi	r27, 0x00	; 0
     9c0:	e4 ee       	ldi	r30, 0xE4	; 228
     9c2:	f4 e0       	ldi	r31, 0x04	; 4
     9c4:	0c 94 e2 1b 	jmp	0x37c4	; 0x37c4 <__prologue_saves__+0x8>
     9c8:	78 2e       	mov	r7, r24
     9ca:	f6 2e       	mov	r15, r22
     9cc:	9f de       	rcall	.-706    	; 0x70c <qt_get_sensor_delta>
     9ce:	5c 01       	movw	r10, r24
     9d0:	07 2d       	mov	r16, r7
     9d2:	10 e0       	ldi	r17, 0x00	; 0
     9d4:	f8 01       	movw	r30, r16
     9d6:	ee 0f       	add	r30, r30
     9d8:	ff 1f       	adc	r31, r31
     9da:	e0 0f       	add	r30, r16
     9dc:	f1 1f       	adc	r31, r17
     9de:	ee 0f       	add	r30, r30
     9e0:	ff 1f       	adc	r31, r31
     9e2:	e3 58       	subi	r30, 0x83	; 131
     9e4:	ff 4d       	sbci	r31, 0xDF	; 223
     9e6:	54 81       	ldd	r21, Z+4	; 0x04
     9e8:	43 81       	ldd	r20, Z+3	; 0x03
     9ea:	24 2f       	mov	r18, r20
     9ec:	30 e0       	ldi	r19, 0x00	; 0
     9ee:	85 2f       	mov	r24, r21
     9f0:	83 70       	andi	r24, 0x03	; 3
     9f2:	90 e0       	ldi	r25, 0x00	; 0
     9f4:	01 96       	adiw	r24, 0x01	; 1
     9f6:	02 c0       	rjmp	.+4      	; 0x9fc <process_sensor+0x40>
     9f8:	35 95       	asr	r19
     9fa:	27 95       	ror	r18
     9fc:	8a 95       	dec	r24
     9fe:	e2 f7       	brpl	.-8      	; 0x9f8 <process_sensor+0x3c>
     a00:	82 2f       	mov	r24, r18
     a02:	22 30       	cpi	r18, 0x02	; 2
     a04:	08 f4       	brcc	.+2      	; 0xa08 <process_sensor+0x4c>
     a06:	82 e0       	ldi	r24, 0x02	; 2
     a08:	24 2f       	mov	r18, r20
     a0a:	30 e0       	ldi	r19, 0x00	; 0
     a0c:	b9 01       	movw	r22, r18
     a0e:	68 1b       	sub	r22, r24
     a10:	71 09       	sbc	r23, r1
     a12:	f8 01       	movw	r30, r16
     a14:	ee 0f       	add	r30, r30
     a16:	ff 1f       	adc	r31, r31
     a18:	e0 0f       	add	r30, r16
     a1a:	f1 1f       	adc	r31, r17
     a1c:	ef 01       	movw	r28, r30
     a1e:	cc 0f       	add	r28, r28
     a20:	dd 1f       	adc	r29, r29
     a22:	c3 58       	subi	r28, 0x83	; 131
     a24:	df 4d       	sbci	r29, 0xDF	; 223
     a26:	88 81       	ld	r24, Y
     a28:	84 30       	cpi	r24, 0x04	; 4
     a2a:	09 f4       	brne	.+2      	; 0xa2e <process_sensor+0x72>
     a2c:	fb c0       	rjmp	.+502    	; 0xc24 <process_sensor+0x268>
     a2e:	85 30       	cpi	r24, 0x05	; 5
     a30:	30 f4       	brcc	.+12     	; 0xa3e <process_sensor+0x82>
     a32:	81 30       	cpi	r24, 0x01	; 1
     a34:	71 f0       	breq	.+28     	; 0xa52 <process_sensor+0x96>
     a36:	82 30       	cpi	r24, 0x02	; 2
     a38:	09 f0       	breq	.+2      	; 0xa3c <process_sensor+0x80>
     a3a:	96 c2       	rjmp	.+1324   	; 0xf68 <process_sensor+0x5ac>
     a3c:	6e c0       	rjmp	.+220    	; 0xb1a <process_sensor+0x15e>
     a3e:	80 31       	cpi	r24, 0x10	; 16
     a40:	09 f4       	brne	.+2      	; 0xa44 <process_sensor+0x88>
     a42:	a5 c1       	rjmp	.+842    	; 0xd8e <process_sensor+0x3d2>
     a44:	80 32       	cpi	r24, 0x20	; 32
     a46:	09 f4       	brne	.+2      	; 0xa4a <process_sensor+0x8e>
     a48:	56 c2       	rjmp	.+1196   	; 0xef6 <process_sensor+0x53a>
     a4a:	88 30       	cpi	r24, 0x08	; 8
     a4c:	09 f0       	breq	.+2      	; 0xa50 <process_sensor+0x94>
     a4e:	8c c2       	rjmp	.+1304   	; 0xf68 <process_sensor+0x5ac>
     a50:	02 c2       	rjmp	.+1028   	; 0xe56 <process_sensor+0x49a>
     a52:	40 91 75 20 	lds	r20, 0x2075
     a56:	50 91 76 20 	lds	r21, 0x2076
     a5a:	ca 01       	movw	r24, r20
     a5c:	92 60       	ori	r25, 0x02	; 2
     a5e:	80 93 75 20 	sts	0x2075, r24
     a62:	90 93 76 20 	sts	0x2076, r25
     a66:	8d 81       	ldd	r24, Y+5	; 0x05
     a68:	69 81       	ldd	r22, Y+1	; 0x01
     a6a:	a8 2f       	mov	r26, r24
     a6c:	b0 e0       	ldi	r27, 0x00	; 0
     a6e:	6a 30       	cpi	r22, 0x0A	; 10
     a70:	60 f0       	brcs	.+24     	; 0xa8a <process_sensor+0xce>
     a72:	aa 0f       	add	r26, r26
     a74:	bb 1f       	adc	r27, r27
     a76:	fd 01       	movw	r30, r26
     a78:	ec 59       	subi	r30, 0x9C	; 156
     a7a:	ff 4d       	sbci	r31, 0xDF	; 223
     a7c:	80 81       	ld	r24, Z
     a7e:	91 81       	ldd	r25, Z+1	; 0x01
     a80:	a4 59       	subi	r26, 0x94	; 148
     a82:	bf 4d       	sbci	r27, 0xDF	; 223
     a84:	8d 93       	st	X+, r24
     a86:	9c 93       	st	X, r25
     a88:	18 c0       	rjmp	.+48     	; 0xaba <process_sensor+0xfe>
     a8a:	aa 0f       	add	r26, r26
     a8c:	bb 1f       	adc	r27, r27
     a8e:	fd 01       	movw	r30, r26
     a90:	e4 59       	subi	r30, 0x94	; 148
     a92:	ff 4d       	sbci	r31, 0xDF	; 223
     a94:	20 81       	ld	r18, Z
     a96:	31 81       	ldd	r19, Z+1	; 0x01
     a98:	ac 59       	subi	r26, 0x9C	; 156
     a9a:	bf 4d       	sbci	r27, 0xDF	; 223
     a9c:	8d 91       	ld	r24, X+
     a9e:	9c 91       	ld	r25, X
     aa0:	82 17       	cp	r24, r18
     aa2:	93 07       	cpc	r25, r19
     aa4:	18 f4       	brcc	.+6      	; 0xaac <process_sensor+0xf0>
     aa6:	21 50       	subi	r18, 0x01	; 1
     aa8:	30 40       	sbci	r19, 0x00	; 0
     aaa:	05 c0       	rjmp	.+10     	; 0xab6 <process_sensor+0xfa>
     aac:	28 17       	cp	r18, r24
     aae:	39 07       	cpc	r19, r25
     ab0:	50 f4       	brcc	.+20     	; 0xac6 <process_sensor+0x10a>
     ab2:	2f 5f       	subi	r18, 0xFF	; 255
     ab4:	3f 4f       	sbci	r19, 0xFF	; 255
     ab6:	20 83       	st	Z, r18
     ab8:	31 83       	std	Z+1, r19	; 0x01
     aba:	48 60       	ori	r20, 0x08	; 8
     abc:	52 60       	ori	r21, 0x02	; 2
     abe:	40 93 75 20 	sts	0x2075, r20
     ac2:	50 93 76 20 	sts	0x2076, r21
     ac6:	86 2f       	mov	r24, r22
     ac8:	81 50       	subi	r24, 0x01	; 1
     aca:	f8 01       	movw	r30, r16
     acc:	ee 0f       	add	r30, r30
     ace:	ff 1f       	adc	r31, r31
     ad0:	e0 0f       	add	r30, r16
     ad2:	f1 1f       	adc	r31, r17
     ad4:	ef 01       	movw	r28, r30
     ad6:	cc 0f       	add	r28, r28
     ad8:	dd 1f       	adc	r29, r29
     ada:	c3 58       	subi	r28, 0x83	; 131
     adc:	df 4d       	sbci	r29, 0xDF	; 223
     ade:	89 83       	std	Y+1, r24	; 0x01
     ae0:	88 23       	and	r24, r24
     ae2:	b1 f4       	brne	.+44     	; 0xb10 <process_sensor+0x154>
     ae4:	ad 81       	ldd	r26, Y+5	; 0x05
     ae6:	82 e0       	ldi	r24, 0x02	; 2
     ae8:	88 83       	st	Y, r24
     aea:	80 91 75 20 	lds	r24, 0x2075
     aee:	90 91 76 20 	lds	r25, 0x2076
     af2:	82 60       	ori	r24, 0x02	; 2
     af4:	80 93 75 20 	sts	0x2075, r24
     af8:	90 93 76 20 	sts	0x2076, r25
     afc:	ee 0f       	add	r30, r30
     afe:	ff 1f       	adc	r31, r31
     b00:	e1 58       	subi	r30, 0x81	; 129
     b02:	ff 4d       	sbci	r31, 0xDF	; 223
     b04:	10 82       	st	Z, r1
     b06:	b0 e0       	ldi	r27, 0x00	; 0
     b08:	a9 56       	subi	r26, 0x69	; 105
     b0a:	bf 4d       	sbci	r27, 0xDF	; 223
     b0c:	80 e8       	ldi	r24, 0x80	; 128
     b0e:	8c 93       	st	X, r24
     b10:	80 91 5f 20 	lds	r24, 0x205F
     b14:	80 93 96 20 	sts	0x2096, r24
     b18:	25 c2       	rjmp	.+1098   	; 0xf64 <process_sensor+0x5a8>
     b1a:	52 ff       	sbrs	r21, 2
     b1c:	08 c0       	rjmp	.+16     	; 0xb2e <process_sensor+0x172>
     b1e:	ed 81       	ldd	r30, Y+5	; 0x05
     b20:	f0 e0       	ldi	r31, 0x00	; 0
     b22:	e9 56       	subi	r30, 0x69	; 105
     b24:	ff 4d       	sbci	r31, 0xDF	; 223
     b26:	10 82       	st	Z, r1
     b28:	80 e2       	ldi	r24, 0x20	; 32
     b2a:	88 83       	st	Y, r24
     b2c:	0c c2       	rjmp	.+1048   	; 0xf46 <process_sensor+0x58a>
     b2e:	c5 01       	movw	r24, r10
     b30:	b7 fe       	sbrs	r11, 7
     b32:	02 c0       	rjmp	.+4      	; 0xb38 <process_sensor+0x17c>
     b34:	80 e0       	ldi	r24, 0x00	; 0
     b36:	90 e0       	ldi	r25, 0x00	; 0
     b38:	82 17       	cp	r24, r18
     b3a:	93 07       	cpc	r25, r19
     b3c:	80 f0       	brcs	.+32     	; 0xb5e <process_sensor+0x1a2>
     b3e:	f8 01       	movw	r30, r16
     b40:	ee 0f       	add	r30, r30
     b42:	ff 1f       	adc	r31, r31
     b44:	e0 0f       	add	r30, r16
     b46:	f1 1f       	adc	r31, r17
     b48:	ee 0f       	add	r30, r30
     b4a:	ff 1f       	adc	r31, r31
     b4c:	df 01       	movw	r26, r30
     b4e:	a3 58       	subi	r26, 0x83	; 131
     b50:	bf 4d       	sbci	r27, 0xDF	; 223
     b52:	84 e0       	ldi	r24, 0x04	; 4
     b54:	8c 93       	st	X, r24
     b56:	e1 58       	subi	r30, 0x81	; 129
     b58:	ff 4d       	sbci	r31, 0xDF	; 223
     b5a:	10 82       	st	Z, r1
     b5c:	fa c1       	rjmp	.+1012   	; 0xf52 <process_sensor+0x596>
     b5e:	ff 20       	and	r15, r15
     b60:	09 f4       	brne	.+2      	; 0xb64 <process_sensor+0x1a8>
     b62:	02 c2       	rjmp	.+1028   	; 0xf68 <process_sensor+0x5ac>
     b64:	80 91 96 20 	lds	r24, 0x2096
     b68:	88 23       	and	r24, r24
     b6a:	09 f0       	breq	.+2      	; 0xb6e <process_sensor+0x1b2>
     b6c:	fd c1       	rjmp	.+1018   	; 0xf68 <process_sensor+0x5ac>
     b6e:	f8 01       	movw	r30, r16
     b70:	ee 0f       	add	r30, r30
     b72:	ff 1f       	adc	r31, r31
     b74:	e0 0f       	add	r30, r16
     b76:	f1 1f       	adc	r31, r17
     b78:	ee 0f       	add	r30, r30
     b7a:	ff 1f       	adc	r31, r31
     b7c:	e3 58       	subi	r30, 0x83	; 131
     b7e:	ff 4d       	sbci	r31, 0xDF	; 223
     b80:	85 81       	ldd	r24, Z+5	; 0x05
     b82:	90 e0       	ldi	r25, 0x00	; 0
     b84:	ec 01       	movw	r28, r24
     b86:	cc 0f       	add	r28, r28
     b88:	dd 1f       	adc	r29, r29
     b8a:	c4 59       	subi	r28, 0x94	; 148
     b8c:	df 4d       	sbci	r29, 0xDF	; 223
     b8e:	28 81       	ld	r18, Y
     b90:	39 81       	ldd	r19, Y+1	; 0x01
     b92:	fc 01       	movw	r30, r24
     b94:	ee 0f       	add	r30, r30
     b96:	ff 1f       	adc	r31, r31
     b98:	ec 59       	subi	r30, 0x9C	; 156
     b9a:	ff 4d       	sbci	r31, 0xDF	; 223
     b9c:	01 90       	ld	r0, Z+
     b9e:	f0 81       	ld	r31, Z
     ba0:	e0 2d       	mov	r30, r0
     ba2:	2e 17       	cp	r18, r30
     ba4:	3f 07       	cpc	r19, r31
     ba6:	88 f4       	brcc	.+34     	; 0xbca <process_sensor+0x20e>
     ba8:	fc 01       	movw	r30, r24
     baa:	e9 56       	subi	r30, 0x69	; 105
     bac:	ff 4d       	sbci	r31, 0xDF	; 223
     bae:	90 81       	ld	r25, Z
     bb0:	9f 0d       	add	r25, r15
     bb2:	90 83       	st	Z, r25
     bb4:	80 91 62 20 	lds	r24, 0x2062
     bb8:	80 58       	subi	r24, 0x80	; 128
     bba:	98 17       	cp	r25, r24
     bbc:	08 f4       	brcc	.+2      	; 0xbc0 <process_sensor+0x204>
     bbe:	d4 c1       	rjmp	.+936    	; 0xf68 <process_sensor+0x5ac>
     bc0:	80 e8       	ldi	r24, 0x80	; 128
     bc2:	80 83       	st	Z, r24
     bc4:	2f 5f       	subi	r18, 0xFF	; 255
     bc6:	3f 4f       	sbci	r19, 0xFF	; 255
     bc8:	14 c0       	rjmp	.+40     	; 0xbf2 <process_sensor+0x236>
     bca:	dc 01       	movw	r26, r24
     bcc:	a9 56       	subi	r26, 0x69	; 105
     bce:	bf 4d       	sbci	r27, 0xDF	; 223
     bd0:	e2 17       	cp	r30, r18
     bd2:	f3 07       	cpc	r31, r19
     bd4:	d0 f4       	brcc	.+52     	; 0xc0a <process_sensor+0x24e>
     bd6:	8c 91       	ld	r24, X
     bd8:	8f 19       	sub	r24, r15
     bda:	8c 93       	st	X, r24
     bdc:	40 e8       	ldi	r20, 0x80	; 128
     bde:	90 91 61 20 	lds	r25, 0x2061
     be2:	54 2f       	mov	r21, r20
     be4:	59 1b       	sub	r21, r25
     be6:	58 17       	cp	r21, r24
     be8:	08 f4       	brcc	.+2      	; 0xbec <process_sensor+0x230>
     bea:	be c1       	rjmp	.+892    	; 0xf68 <process_sensor+0x5ac>
     bec:	4c 93       	st	X, r20
     bee:	21 50       	subi	r18, 0x01	; 1
     bf0:	30 40       	sbci	r19, 0x00	; 0
     bf2:	28 83       	st	Y, r18
     bf4:	39 83       	std	Y+1, r19	; 0x01
     bf6:	80 91 75 20 	lds	r24, 0x2075
     bfa:	90 91 76 20 	lds	r25, 0x2076
     bfe:	88 60       	ori	r24, 0x08	; 8
     c00:	80 93 75 20 	sts	0x2075, r24
     c04:	90 93 76 20 	sts	0x2076, r25
     c08:	af c1       	rjmp	.+862    	; 0xf68 <process_sensor+0x5ac>
     c0a:	2c 91       	ld	r18, X
     c0c:	21 38       	cpi	r18, 0x81	; 129
     c0e:	10 f0       	brcs	.+4      	; 0xc14 <process_sensor+0x258>
     c10:	21 50       	subi	r18, 0x01	; 1
     c12:	2c 93       	st	X, r18
     c14:	fc 01       	movw	r30, r24
     c16:	e9 56       	subi	r30, 0x69	; 105
     c18:	ff 4d       	sbci	r31, 0xDF	; 223
     c1a:	80 81       	ld	r24, Z
     c1c:	87 fd       	sbrc	r24, 7
     c1e:	a4 c1       	rjmp	.+840    	; 0xf68 <process_sensor+0x5ac>
     c20:	8f 5f       	subi	r24, 0xFF	; 255
     c22:	67 c1       	rjmp	.+718    	; 0xef2 <process_sensor+0x536>
     c24:	c5 01       	movw	r24, r10
     c26:	b7 fe       	sbrs	r11, 7
     c28:	02 c0       	rjmp	.+4      	; 0xc2e <process_sensor+0x272>
     c2a:	80 e0       	ldi	r24, 0x00	; 0
     c2c:	90 e0       	ldi	r25, 0x00	; 0
     c2e:	f8 01       	movw	r30, r16
     c30:	ee 0f       	add	r30, r30
     c32:	ff 1f       	adc	r31, r31
     c34:	82 17       	cp	r24, r18
     c36:	93 07       	cpc	r25, r19
     c38:	08 f4       	brcc	.+2      	; 0xc3c <process_sensor+0x280>
     c3a:	8f c0       	rjmp	.+286    	; 0xd5a <process_sensor+0x39e>
     c3c:	80 91 5f 20 	lds	r24, 0x205F
     c40:	80 93 96 20 	sts	0x2096, r24
     c44:	9f 01       	movw	r18, r30
     c46:	20 0f       	add	r18, r16
     c48:	31 1f       	adc	r19, r17
     c4a:	22 0f       	add	r18, r18
     c4c:	33 1f       	adc	r19, r19
     c4e:	d9 01       	movw	r26, r18
     c50:	a1 58       	subi	r26, 0x81	; 129
     c52:	bf 4d       	sbci	r27, 0xDF	; 223
     c54:	8c 91       	ld	r24, X
     c56:	8f 5f       	subi	r24, 0xFF	; 255
     c58:	8c 93       	st	X, r24
     c5a:	f9 01       	movw	r30, r18
     c5c:	e3 58       	subi	r30, 0x83	; 131
     c5e:	ff 4d       	sbci	r31, 0xDF	; 223
     c60:	84 81       	ldd	r24, Z+4	; 0x04
     c62:	90 e0       	ldi	r25, 0x00	; 0
     c64:	88 73       	andi	r24, 0x38	; 56
     c66:	90 70       	andi	r25, 0x00	; 0
     c68:	23 e0       	ldi	r18, 0x03	; 3
     c6a:	96 95       	lsr	r25
     c6c:	87 95       	ror	r24
     c6e:	2a 95       	dec	r18
     c70:	e1 f7       	brne	.-8      	; 0xc6a <process_sensor+0x2ae>
     c72:	68 2e       	mov	r6, r24
     c74:	88 23       	and	r24, r24
     c76:	09 f4       	brne	.+2      	; 0xc7a <process_sensor+0x2be>
     c78:	3e c0       	rjmp	.+124    	; 0xcf6 <process_sensor+0x33a>
     c7a:	cc 24       	eor	r12, r12
     c7c:	dd 24       	eor	r13, r13
     c7e:	7f 01       	movw	r14, r30
     c80:	83 e0       	ldi	r24, 0x03	; 3
     c82:	90 e0       	ldi	r25, 0x00	; 0
     c84:	e8 0e       	add	r14, r24
     c86:	f9 1e       	adc	r15, r25
     c88:	4d 01       	movw	r8, r26
     c8a:	2f c0       	rjmp	.+94     	; 0xcea <process_sensor+0x32e>
     c8c:	d7 14       	cp	r13, r7
     c8e:	61 f1       	breq	.+88     	; 0xce8 <process_sensor+0x32c>
     c90:	8d 2d       	mov	r24, r13
     c92:	90 e0       	ldi	r25, 0x00	; 0
     c94:	ec 01       	movw	r28, r24
     c96:	cc 0f       	add	r28, r28
     c98:	dd 1f       	adc	r29, r29
     c9a:	c8 0f       	add	r28, r24
     c9c:	d9 1f       	adc	r29, r25
     c9e:	cc 0f       	add	r28, r28
     ca0:	dd 1f       	adc	r29, r29
     ca2:	c3 58       	subi	r28, 0x83	; 131
     ca4:	df 4d       	sbci	r29, 0xDF	; 223
     ca6:	8c 81       	ldd	r24, Y+4	; 0x04
     ca8:	90 e0       	ldi	r25, 0x00	; 0
     caa:	88 73       	andi	r24, 0x38	; 56
     cac:	90 70       	andi	r25, 0x00	; 0
     cae:	73 e0       	ldi	r23, 0x03	; 3
     cb0:	96 95       	lsr	r25
     cb2:	87 95       	ror	r24
     cb4:	7a 95       	dec	r23
     cb6:	e1 f7       	brne	.-8      	; 0xcb0 <process_sensor+0x2f4>
     cb8:	68 16       	cp	r6, r24
     cba:	b1 f4       	brne	.+44     	; 0xce8 <process_sensor+0x32c>
     cbc:	8d 2d       	mov	r24, r13
     cbe:	26 dd       	rcall	.-1460   	; 0x70c <qt_get_sensor_delta>
     cc0:	2b 81       	ldd	r18, Y+3	; 0x03
     cc2:	82 1b       	sub	r24, r18
     cc4:	91 09       	sbc	r25, r1
     cc6:	f7 01       	movw	r30, r14
     cc8:	20 81       	ld	r18, Z
     cca:	a5 01       	movw	r20, r10
     ccc:	42 1b       	sub	r20, r18
     cce:	51 09       	sbc	r21, r1
     cd0:	48 17       	cp	r20, r24
     cd2:	59 07       	cpc	r21, r25
     cd4:	2c f0       	brlt	.+10     	; 0xce0 <process_sensor+0x324>
     cd6:	88 81       	ld	r24, Y
     cd8:	80 31       	cpi	r24, 0x10	; 16
     cda:	11 f0       	breq	.+4      	; 0xce0 <process_sensor+0x324>
     cdc:	88 30       	cpi	r24, 0x08	; 8
     cde:	21 f4       	brne	.+8      	; 0xce8 <process_sensor+0x32c>
     ce0:	f4 01       	movw	r30, r8
     ce2:	10 82       	st	Z, r1
     ce4:	cc 24       	eor	r12, r12
     ce6:	c3 94       	inc	r12
     ce8:	d3 94       	inc	r13
     cea:	80 91 95 20 	lds	r24, 0x2095
     cee:	d8 16       	cp	r13, r24
     cf0:	68 f2       	brcs	.-102    	; 0xc8c <process_sensor+0x2d0>
     cf2:	cc 20       	and	r12, r12
     cf4:	79 f4       	brne	.+30     	; 0xd14 <process_sensor+0x358>
     cf6:	80 91 5e 20 	lds	r24, 0x205E
     cfa:	88 23       	and	r24, r24
     cfc:	59 f0       	breq	.+22     	; 0xd14 <process_sensor+0x358>
     cfe:	80 91 75 20 	lds	r24, 0x2075
     d02:	90 91 76 20 	lds	r25, 0x2076
     d06:	98 60       	ori	r25, 0x08	; 8
     d08:	80 93 75 20 	sts	0x2075, r24
     d0c:	90 93 76 20 	sts	0x2076, r25
     d10:	41 e0       	ldi	r20, 0x01	; 1
     d12:	01 c0       	rjmp	.+2      	; 0xd16 <process_sensor+0x35a>
     d14:	40 e0       	ldi	r20, 0x00	; 0
     d16:	98 01       	movw	r18, r16
     d18:	22 0f       	add	r18, r18
     d1a:	33 1f       	adc	r19, r19
     d1c:	20 0f       	add	r18, r16
     d1e:	31 1f       	adc	r19, r17
     d20:	f9 01       	movw	r30, r18
     d22:	ee 0f       	add	r30, r30
     d24:	ff 1f       	adc	r31, r31
     d26:	e1 58       	subi	r30, 0x81	; 129
     d28:	ff 4d       	sbci	r31, 0xDF	; 223
     d2a:	90 81       	ld	r25, Z
     d2c:	80 91 5e 20 	lds	r24, 0x205E
     d30:	98 17       	cp	r25, r24
     d32:	08 f4       	brcc	.+2      	; 0xd36 <process_sensor+0x37a>
     d34:	1a c1       	rjmp	.+564    	; 0xf6a <process_sensor+0x5ae>
     d36:	80 91 75 20 	lds	r24, 0x2075
     d3a:	90 91 76 20 	lds	r25, 0x2076
     d3e:	83 60       	ori	r24, 0x03	; 3
     d40:	80 93 75 20 	sts	0x2075, r24
     d44:	90 93 76 20 	sts	0x2076, r25
     d48:	f9 01       	movw	r30, r18
     d4a:	ee 0f       	add	r30, r30
     d4c:	ff 1f       	adc	r31, r31
     d4e:	e3 58       	subi	r30, 0x83	; 131
     d50:	ff 4d       	sbci	r31, 0xDF	; 223
     d52:	80 e1       	ldi	r24, 0x10	; 16
     d54:	80 83       	st	Z, r24
     d56:	11 82       	std	Z+1, r1	; 0x01
     d58:	08 c1       	rjmp	.+528    	; 0xf6a <process_sensor+0x5ae>
     d5a:	e0 0f       	add	r30, r16
     d5c:	f1 1f       	adc	r31, r17
     d5e:	ee 0f       	add	r30, r30
     d60:	ff 1f       	adc	r31, r31
     d62:	df 01       	movw	r26, r30
     d64:	a3 58       	subi	r26, 0x83	; 131
     d66:	bf 4d       	sbci	r27, 0xDF	; 223
     d68:	15 96       	adiw	r26, 0x05	; 5
     d6a:	2c 91       	ld	r18, X
     d6c:	15 97       	sbiw	r26, 0x05	; 5
     d6e:	82 e0       	ldi	r24, 0x02	; 2
     d70:	8c 93       	st	X, r24
     d72:	80 91 75 20 	lds	r24, 0x2075
     d76:	90 91 76 20 	lds	r25, 0x2076
     d7a:	82 60       	ori	r24, 0x02	; 2
     d7c:	80 93 75 20 	sts	0x2075, r24
     d80:	90 93 76 20 	sts	0x2076, r25
     d84:	e1 58       	subi	r30, 0x81	; 129
     d86:	ff 4d       	sbci	r31, 0xDF	; 223
     d88:	10 82       	st	Z, r1
     d8a:	e2 2f       	mov	r30, r18
     d8c:	ae c0       	rjmp	.+348    	; 0xeea <process_sensor+0x52e>
     d8e:	52 ff       	sbrs	r21, 2
     d90:	0e c0       	rjmp	.+28     	; 0xdae <process_sensor+0x3f2>
     d92:	ed 81       	ldd	r30, Y+5	; 0x05
     d94:	f0 e0       	ldi	r31, 0x00	; 0
     d96:	e9 56       	subi	r30, 0x69	; 105
     d98:	ff 4d       	sbci	r31, 0xDF	; 223
     d9a:	80 e8       	ldi	r24, 0x80	; 128
     d9c:	80 83       	st	Z, r24
     d9e:	80 e2       	ldi	r24, 0x20	; 32
     da0:	88 83       	st	Y, r24
     da2:	80 91 75 20 	lds	r24, 0x2075
     da6:	90 91 76 20 	lds	r25, 0x2076
     daa:	90 61       	ori	r25, 0x10	; 16
     dac:	4a c0       	rjmp	.+148    	; 0xe42 <process_sensor+0x486>
     dae:	c5 01       	movw	r24, r10
     db0:	b7 fe       	sbrs	r11, 7
     db2:	02 c0       	rjmp	.+4      	; 0xdb8 <process_sensor+0x3fc>
     db4:	80 e0       	ldi	r24, 0x00	; 0
     db6:	90 e0       	ldi	r25, 0x00	; 0
     db8:	f8 01       	movw	r30, r16
     dba:	ee 0f       	add	r30, r30
     dbc:	ff 1f       	adc	r31, r31
     dbe:	40 91 75 20 	lds	r20, 0x2075
     dc2:	50 91 76 20 	lds	r21, 0x2076
     dc6:	86 17       	cp	r24, r22
     dc8:	97 07       	cpc	r25, r23
     dca:	70 f4       	brcc	.+28     	; 0xde8 <process_sensor+0x42c>
     dcc:	e0 0f       	add	r30, r16
     dce:	f1 1f       	adc	r31, r17
     dd0:	ee 0f       	add	r30, r30
     dd2:	ff 1f       	adc	r31, r31
     dd4:	e3 58       	subi	r30, 0x83	; 131
     dd6:	ff 4d       	sbci	r31, 0xDF	; 223
     dd8:	88 e0       	ldi	r24, 0x08	; 8
     dda:	80 83       	st	Z, r24
     ddc:	54 60       	ori	r21, 0x04	; 4
     dde:	40 93 75 20 	sts	0x2075, r20
     de2:	50 93 76 20 	sts	0x2076, r21
     de6:	31 c0       	rjmp	.+98     	; 0xe4a <process_sensor+0x48e>
     de8:	41 60       	ori	r20, 0x01	; 1
     dea:	40 93 75 20 	sts	0x2075, r20
     dee:	50 93 76 20 	sts	0x2076, r21
     df2:	e0 0f       	add	r30, r16
     df4:	f1 1f       	adc	r31, r17
     df6:	ee 0f       	add	r30, r30
     df8:	ff 1f       	adc	r31, r31
     dfa:	e1 58       	subi	r30, 0x81	; 129
     dfc:	ff 4d       	sbci	r31, 0xDF	; 223
     dfe:	90 81       	ld	r25, Z
     e00:	80 91 5e 20 	lds	r24, 0x205E
     e04:	98 17       	cp	r25, r24
     e06:	10 f4       	brcc	.+4      	; 0xe0c <process_sensor+0x450>
     e08:	9f 5f       	subi	r25, 0xFF	; 255
     e0a:	90 83       	st	Z, r25
     e0c:	90 91 60 20 	lds	r25, 0x2060
     e10:	99 23       	and	r25, r25
     e12:	71 f0       	breq	.+28     	; 0xe30 <process_sensor+0x474>
     e14:	f8 01       	movw	r30, r16
     e16:	ee 0f       	add	r30, r30
     e18:	ff 1f       	adc	r31, r31
     e1a:	e0 0f       	add	r30, r16
     e1c:	f1 1f       	adc	r31, r17
     e1e:	ee 0f       	add	r30, r30
     e20:	ff 1f       	adc	r31, r31
     e22:	e3 58       	subi	r30, 0x83	; 131
     e24:	ff 4d       	sbci	r31, 0xDF	; 223
     e26:	81 81       	ldd	r24, Z+1	; 0x01
     e28:	89 17       	cp	r24, r25
     e2a:	20 f4       	brcc	.+8      	; 0xe34 <process_sensor+0x478>
     e2c:	8f 0d       	add	r24, r15
     e2e:	81 83       	std	Z+1, r24	; 0x01
     e30:	40 e0       	ldi	r20, 0x00	; 0
     e32:	0c c0       	rjmp	.+24     	; 0xe4c <process_sensor+0x490>
     e34:	87 2d       	mov	r24, r7
     e36:	81 dd       	rcall	.-1278   	; 0x93a <start_cal_sensor>
     e38:	80 91 75 20 	lds	r24, 0x2075
     e3c:	90 91 76 20 	lds	r25, 0x2076
     e40:	92 60       	ori	r25, 0x02	; 2
     e42:	80 93 75 20 	sts	0x2075, r24
     e46:	90 93 76 20 	sts	0x2076, r25
     e4a:	41 e0       	ldi	r20, 0x01	; 1
     e4c:	80 91 5f 20 	lds	r24, 0x205F
     e50:	80 93 96 20 	sts	0x2096, r24
     e54:	8a c0       	rjmp	.+276    	; 0xf6a <process_sensor+0x5ae>
     e56:	80 91 5f 20 	lds	r24, 0x205F
     e5a:	80 93 96 20 	sts	0x2096, r24
     e5e:	df 01       	movw	r26, r30
     e60:	aa 0f       	add	r26, r26
     e62:	bb 1f       	adc	r27, r27
     e64:	a1 58       	subi	r26, 0x81	; 129
     e66:	bf 4d       	sbci	r27, 0xDF	; 223
     e68:	8c 91       	ld	r24, X
     e6a:	88 23       	and	r24, r24
     e6c:	89 f1       	breq	.+98     	; 0xed0 <process_sensor+0x514>
     e6e:	c5 01       	movw	r24, r10
     e70:	b7 fe       	sbrs	r11, 7
     e72:	02 c0       	rjmp	.+4      	; 0xe78 <process_sensor+0x4bc>
     e74:	80 e0       	ldi	r24, 0x00	; 0
     e76:	90 e0       	ldi	r25, 0x00	; 0
     e78:	40 91 75 20 	lds	r20, 0x2075
     e7c:	50 91 76 20 	lds	r21, 0x2076
     e80:	68 17       	cp	r22, r24
     e82:	79 07       	cpc	r23, r25
     e84:	90 f4       	brcc	.+36     	; 0xeaa <process_sensor+0x4ee>
     e86:	f8 01       	movw	r30, r16
     e88:	ee 0f       	add	r30, r30
     e8a:	ff 1f       	adc	r31, r31
     e8c:	e0 0f       	add	r30, r16
     e8e:	f1 1f       	adc	r31, r17
     e90:	ee 0f       	add	r30, r30
     e92:	ff 1f       	adc	r31, r31
     e94:	e3 58       	subi	r30, 0x83	; 131
     e96:	ff 4d       	sbci	r31, 0xDF	; 223
     e98:	80 e1       	ldi	r24, 0x10	; 16
     e9a:	80 83       	st	Z, r24
     e9c:	41 60       	ori	r20, 0x01	; 1
     e9e:	40 93 75 20 	sts	0x2075, r20
     ea2:	50 93 76 20 	sts	0x2076, r21
     ea6:	40 e0       	ldi	r20, 0x00	; 0
     ea8:	06 c0       	rjmp	.+12     	; 0xeb6 <process_sensor+0x4fa>
     eaa:	54 60       	ori	r21, 0x04	; 4
     eac:	40 93 75 20 	sts	0x2075, r20
     eb0:	50 93 76 20 	sts	0x2076, r21
     eb4:	41 e0       	ldi	r20, 0x01	; 1
     eb6:	f8 01       	movw	r30, r16
     eb8:	ee 0f       	add	r30, r30
     eba:	ff 1f       	adc	r31, r31
     ebc:	e0 0f       	add	r30, r16
     ebe:	f1 1f       	adc	r31, r17
     ec0:	ee 0f       	add	r30, r30
     ec2:	ff 1f       	adc	r31, r31
     ec4:	e1 58       	subi	r30, 0x81	; 129
     ec6:	ff 4d       	sbci	r31, 0xDF	; 223
     ec8:	80 81       	ld	r24, Z
     eca:	81 50       	subi	r24, 0x01	; 1
     ecc:	80 83       	st	Z, r24
     ece:	4d c0       	rjmp	.+154    	; 0xf6a <process_sensor+0x5ae>
     ed0:	ed 81       	ldd	r30, Y+5	; 0x05
     ed2:	82 e0       	ldi	r24, 0x02	; 2
     ed4:	88 83       	st	Y, r24
     ed6:	80 91 75 20 	lds	r24, 0x2075
     eda:	90 91 76 20 	lds	r25, 0x2076
     ede:	82 60       	ori	r24, 0x02	; 2
     ee0:	80 93 75 20 	sts	0x2075, r24
     ee4:	90 93 76 20 	sts	0x2076, r25
     ee8:	1c 92       	st	X, r1
     eea:	f0 e0       	ldi	r31, 0x00	; 0
     eec:	e9 56       	subi	r30, 0x69	; 105
     eee:	ff 4d       	sbci	r31, 0xDF	; 223
     ef0:	80 e8       	ldi	r24, 0x80	; 128
     ef2:	80 83       	st	Z, r24
     ef4:	39 c0       	rjmp	.+114    	; 0xf68 <process_sensor+0x5ac>
     ef6:	8d 81       	ldd	r24, Y+5	; 0x05
     ef8:	a8 2f       	mov	r26, r24
     efa:	b0 e0       	ldi	r27, 0x00	; 0
     efc:	a9 56       	subi	r26, 0x69	; 105
     efe:	bf 4d       	sbci	r27, 0xDF	; 223
     f00:	9c 91       	ld	r25, X
     f02:	9f 5f       	subi	r25, 0xFF	; 255
     f04:	9c 93       	st	X, r25
     f06:	52 fd       	sbrc	r21, 2
     f08:	18 c0       	rjmp	.+48     	; 0xf3a <process_sensor+0x57e>
     f0a:	97 ff       	sbrs	r25, 7
     f0c:	03 c0       	rjmp	.+6      	; 0xf14 <process_sensor+0x558>
     f0e:	80 e1       	ldi	r24, 0x10	; 16
     f10:	88 83       	st	Y, r24
     f12:	2a c0       	rjmp	.+84     	; 0xf68 <process_sensor+0x5ac>
     f14:	82 e0       	ldi	r24, 0x02	; 2
     f16:	88 83       	st	Y, r24
     f18:	80 91 75 20 	lds	r24, 0x2075
     f1c:	90 91 76 20 	lds	r25, 0x2076
     f20:	82 60       	ori	r24, 0x02	; 2
     f22:	80 93 75 20 	sts	0x2075, r24
     f26:	90 93 76 20 	sts	0x2076, r25
     f2a:	ee 0f       	add	r30, r30
     f2c:	ff 1f       	adc	r31, r31
     f2e:	e1 58       	subi	r30, 0x81	; 129
     f30:	ff 4d       	sbci	r31, 0xDF	; 223
     f32:	10 82       	st	Z, r1
     f34:	80 e8       	ldi	r24, 0x80	; 128
     f36:	8c 93       	st	X, r24
     f38:	17 c0       	rjmp	.+46     	; 0xf68 <process_sensor+0x5ac>
     f3a:	80 91 63 20 	lds	r24, 0x2063
     f3e:	98 17       	cp	r25, r24
     f40:	40 f0       	brcs	.+16     	; 0xf52 <process_sensor+0x596>
     f42:	87 2d       	mov	r24, r7
     f44:	fa dc       	rcall	.-1548   	; 0x93a <start_cal_sensor>
     f46:	80 91 75 20 	lds	r24, 0x2075
     f4a:	90 91 76 20 	lds	r25, 0x2076
     f4e:	90 61       	ori	r25, 0x10	; 16
     f50:	05 c0       	rjmp	.+10     	; 0xf5c <process_sensor+0x5a0>
     f52:	80 91 75 20 	lds	r24, 0x2075
     f56:	90 91 76 20 	lds	r25, 0x2076
     f5a:	94 60       	ori	r25, 0x04	; 4
     f5c:	80 93 75 20 	sts	0x2075, r24
     f60:	90 93 76 20 	sts	0x2076, r25
     f64:	41 e0       	ldi	r20, 0x01	; 1
     f66:	01 c0       	rjmp	.+2      	; 0xf6a <process_sensor+0x5ae>
     f68:	40 e0       	ldi	r20, 0x00	; 0
     f6a:	84 2f       	mov	r24, r20
     f6c:	cd b7       	in	r28, 0x3d	; 61
     f6e:	de b7       	in	r29, 0x3e	; 62
     f70:	ee e0       	ldi	r30, 0x0E	; 14
     f72:	0c 94 fb 1b 	jmp	0x37f6	; 0x37f6 <__epilogue_restores__+0x8>

00000f76 <burst_init>:
     f76:	fc 01       	movw	r30, r24
     f78:	00 97       	sbiw	r24, 0x00	; 0
     f7a:	09 f0       	breq	.+2      	; 0xf7e <burst_init+0x8>
     f7c:	19 95       	eicall
     f7e:	08 95       	ret

00000f80 <burst_reset>:
     f80:	10 92 9b 20 	sts	0x209B, r1
     f84:	10 92 9c 20 	sts	0x209C, r1
     f88:	10 92 9f 20 	sts	0x209F, r1
     f8c:	10 92 a0 20 	sts	0x20A0, r1
     f90:	10 92 9d 20 	sts	0x209D, r1
     f94:	10 92 9e 20 	sts	0x209E, r1
     f98:	10 92 a1 20 	sts	0x20A1, r1
     f9c:	10 92 a2 20 	sts	0x20A2, r1
     fa0:	08 95       	ret

00000fa2 <burst>:
     fa2:	80 91 9d 20 	lds	r24, 0x209D
     fa6:	90 91 9b 20 	lds	r25, 0x209B
     faa:	89 2b       	or	r24, r25
     fac:	41 f0       	breq	.+16     	; 0xfbe <burst+0x1c>
     fae:	e0 91 5b 20 	lds	r30, 0x205B
     fb2:	f0 91 5c 20 	lds	r31, 0x205C
     fb6:	30 97       	sbiw	r30, 0x00	; 0
     fb8:	11 f0       	breq	.+4      	; 0xfbe <burst+0x1c>
     fba:	80 e0       	ldi	r24, 0x00	; 0
     fbc:	19 95       	eicall
     fbe:	80 91 9e 20 	lds	r24, 0x209E
     fc2:	90 91 9c 20 	lds	r25, 0x209C
     fc6:	89 2b       	or	r24, r25
     fc8:	41 f0       	breq	.+16     	; 0xfda <burst+0x38>
     fca:	e0 91 5b 20 	lds	r30, 0x205B
     fce:	f0 91 5c 20 	lds	r31, 0x205C
     fd2:	30 97       	sbiw	r30, 0x00	; 0
     fd4:	11 f0       	breq	.+4      	; 0xfda <burst+0x38>
     fd6:	81 e0       	ldi	r24, 0x01	; 1
     fd8:	19 95       	eicall
     fda:	08 95       	ret

00000fdc <adc_handler>:
     fdc:	61 30       	cpi	r22, 0x01	; 1
     fde:	69 f5       	brne	.+90     	; 0x103a <adc_handler+0x5e>
     fe0:	80 91 a4 20 	lds	r24, 0x20A4
     fe4:	8f 5f       	subi	r24, 0xFF	; 255
     fe6:	80 93 a4 20 	sts	0x20A4, r24
     fea:	81 30       	cpi	r24, 0x01	; 1
     fec:	39 f4       	brne	.+14     	; 0xffc <adc_handler+0x20>
     fee:	40 93 a5 20 	sts	0x20A5, r20
     ff2:	50 93 a6 20 	sts	0x20A6, r21
     ff6:	10 92 a9 20 	sts	0x20A9, r1
     ffa:	0c c0       	rjmp	.+24     	; 0x1014 <adc_handler+0x38>
     ffc:	80 91 a5 20 	lds	r24, 0x20A5
    1000:	90 91 a6 20 	lds	r25, 0x20A6
    1004:	48 0f       	add	r20, r24
    1006:	59 1f       	adc	r21, r25
    1008:	56 95       	lsr	r21
    100a:	47 95       	ror	r20
    100c:	40 93 a5 20 	sts	0x20A5, r20
    1010:	50 93 a6 20 	sts	0x20A6, r21
    1014:	80 91 a4 20 	lds	r24, 0x20A4
    1018:	84 30       	cpi	r24, 0x04	; 4
    101a:	31 f4       	brne	.+12     	; 0x1028 <adc_handler+0x4c>
    101c:	10 92 a4 20 	sts	0x20A4, r1
    1020:	81 e0       	ldi	r24, 0x01	; 1
    1022:	80 93 a9 20 	sts	0x20A9, r24
    1026:	08 95       	ret
    1028:	8f b7       	in	r24, 0x3f	; 63
    102a:	f8 94       	cli
    102c:	e0 e0       	ldi	r30, 0x00	; 0
    102e:	f2 e0       	ldi	r31, 0x02	; 2
    1030:	90 81       	ld	r25, Z
    1032:	94 60       	ori	r25, 0x04	; 4
    1034:	90 83       	st	Z, r25
    1036:	8f bf       	out	0x3f, r24	; 63
    1038:	08 95       	ret
    103a:	62 30       	cpi	r22, 0x02	; 2
    103c:	61 f5       	brne	.+88     	; 0x1096 <adc_handler+0xba>
    103e:	80 91 a3 20 	lds	r24, 0x20A3
    1042:	8f 5f       	subi	r24, 0xFF	; 255
    1044:	80 93 a3 20 	sts	0x20A3, r24
    1048:	81 30       	cpi	r24, 0x01	; 1
    104a:	39 f4       	brne	.+14     	; 0x105a <adc_handler+0x7e>
    104c:	40 93 a7 20 	sts	0x20A7, r20
    1050:	50 93 a8 20 	sts	0x20A8, r21
    1054:	10 92 aa 20 	sts	0x20AA, r1
    1058:	0c c0       	rjmp	.+24     	; 0x1072 <adc_handler+0x96>
    105a:	80 91 a7 20 	lds	r24, 0x20A7
    105e:	90 91 a8 20 	lds	r25, 0x20A8
    1062:	48 0f       	add	r20, r24
    1064:	59 1f       	adc	r21, r25
    1066:	56 95       	lsr	r21
    1068:	47 95       	ror	r20
    106a:	40 93 a7 20 	sts	0x20A7, r20
    106e:	50 93 a8 20 	sts	0x20A8, r21
    1072:	80 91 a3 20 	lds	r24, 0x20A3
    1076:	84 30       	cpi	r24, 0x04	; 4
    1078:	31 f4       	brne	.+12     	; 0x1086 <adc_handler+0xaa>
    107a:	10 92 a3 20 	sts	0x20A3, r1
    107e:	81 e0       	ldi	r24, 0x01	; 1
    1080:	80 93 aa 20 	sts	0x20AA, r24
    1084:	08 95       	ret
    1086:	8f b7       	in	r24, 0x3f	; 63
    1088:	f8 94       	cli
    108a:	e0 e0       	ldi	r30, 0x00	; 0
    108c:	f2 e0       	ldi	r31, 0x02	; 2
    108e:	90 81       	ld	r25, Z
    1090:	98 60       	ori	r25, 0x08	; 8
    1092:	90 83       	st	Z, r25
    1094:	8f bf       	out	0x3f, r24	; 63
    1096:	08 95       	ret

00001098 <adc_sensors_init>:
    1098:	1f 93       	push	r17
    109a:	cf 93       	push	r28
    109c:	df 93       	push	r29
    109e:	cd b7       	in	r28, 0x3d	; 61
    10a0:	de b7       	in	r29, 0x3e	; 62
    10a2:	2b 97       	sbiw	r28, 0x0b	; 11
    10a4:	cd bf       	out	0x3d, r28	; 61
    10a6:	de bf       	out	0x3e, r29	; 62
    10a8:	be 01       	movw	r22, r28
    10aa:	6f 5f       	subi	r22, 0xFF	; 255
    10ac:	7f 4f       	sbci	r23, 0xFF	; 255
    10ae:	80 e0       	ldi	r24, 0x00	; 0
    10b0:	92 e0       	ldi	r25, 0x02	; 2
    10b2:	d7 d5       	rcall	.+2990   	; 0x1c62 <adc_read_configuration>
    10b4:	ae 01       	movw	r20, r28
    10b6:	48 5f       	subi	r20, 0xF8	; 248
    10b8:	5f 4f       	sbci	r21, 0xFF	; 255
    10ba:	61 e0       	ldi	r22, 0x01	; 1
    10bc:	80 e0       	ldi	r24, 0x00	; 0
    10be:	92 e0       	ldi	r25, 0x02	; 2
    10c0:	2c d6       	rcall	.+3160   	; 0x1d1a <adcch_read_configuration>
    10c2:	8a 81       	ldd	r24, Y+2	; 0x02
    10c4:	9b 81       	ldd	r25, Y+3	; 0x03
    10c6:	9f 78       	andi	r25, 0x8F	; 143
    10c8:	90 61       	ori	r25, 0x10	; 16
    10ca:	9b 83       	std	Y+3, r25	; 0x03
    10cc:	96 e0       	ldi	r25, 0x06	; 6
    10ce:	9d 83       	std	Y+5, r25	; 0x05
    10d0:	81 7e       	andi	r24, 0xE1	; 225
    10d2:	80 61       	ori	r24, 0x10	; 16
    10d4:	8a 83       	std	Y+2, r24	; 0x02
    10d6:	1c 82       	std	Y+4, r1	; 0x04
    10d8:	be 01       	movw	r22, r28
    10da:	6f 5f       	subi	r22, 0xFF	; 255
    10dc:	7f 4f       	sbci	r23, 0xFF	; 255
    10de:	80 e0       	ldi	r24, 0x00	; 0
    10e0:	92 e0       	ldi	r25, 0x02	; 2
    10e2:	6a d5       	rcall	.+2772   	; 0x1bb8 <adc_write_configuration>
    10e4:	6e ee       	ldi	r22, 0xEE	; 238
    10e6:	77 e0       	ldi	r23, 0x07	; 7
    10e8:	80 e0       	ldi	r24, 0x00	; 0
    10ea:	92 e0       	ldi	r25, 0x02	; 2
    10ec:	68 d3       	rcall	.+1744   	; 0x17be <adc_set_callback>
    10ee:	11 e0       	ldi	r17, 0x01	; 1
    10f0:	18 87       	std	Y+8, r17	; 0x08
    10f2:	19 86       	std	Y+9, r1	; 0x09
    10f4:	8a 85       	ldd	r24, Y+10	; 0x0a
    10f6:	80 7f       	andi	r24, 0xF0	; 240
    10f8:	81 60       	ori	r24, 0x01	; 1
    10fa:	8a 87       	std	Y+10, r24	; 0x0a
    10fc:	ae 01       	movw	r20, r28
    10fe:	48 5f       	subi	r20, 0xF8	; 248
    1100:	5f 4f       	sbci	r21, 0xFF	; 255
    1102:	61 e0       	ldi	r22, 0x01	; 1
    1104:	80 e0       	ldi	r24, 0x00	; 0
    1106:	92 e0       	ldi	r25, 0x02	; 2
    1108:	cf d5       	rcall	.+2974   	; 0x1ca8 <adcch_write_configuration>
    110a:	18 87       	std	Y+8, r17	; 0x08
    110c:	88 e0       	ldi	r24, 0x08	; 8
    110e:	89 87       	std	Y+9, r24	; 0x09
    1110:	ae 01       	movw	r20, r28
    1112:	48 5f       	subi	r20, 0xF8	; 248
    1114:	5f 4f       	sbci	r21, 0xFF	; 255
    1116:	62 e0       	ldi	r22, 0x02	; 2
    1118:	80 e0       	ldi	r24, 0x00	; 0
    111a:	92 e0       	ldi	r25, 0x02	; 2
    111c:	c5 d5       	rcall	.+2954   	; 0x1ca8 <adcch_write_configuration>
    111e:	80 e0       	ldi	r24, 0x00	; 0
    1120:	92 e0       	ldi	r25, 0x02	; 2
    1122:	a3 d3       	rcall	.+1862   	; 0x186a <adc_enable>
    1124:	2b 96       	adiw	r28, 0x0b	; 11
    1126:	cd bf       	out	0x3d, r28	; 61
    1128:	de bf       	out	0x3e, r29	; 62
    112a:	df 91       	pop	r29
    112c:	cf 91       	pop	r28
    112e:	1f 91       	pop	r17
    1130:	08 95       	ret

00001132 <st7565r_init>:
    1132:	bf 92       	push	r11
    1134:	cf 92       	push	r12
    1136:	df 92       	push	r13
    1138:	ef 92       	push	r14
    113a:	ff 92       	push	r15
    113c:	0f 93       	push	r16
    113e:	1f 93       	push	r17
    1140:	cf 93       	push	r28
    1142:	df 93       	push	r29
    1144:	1f 92       	push	r1
    1146:	cd b7       	in	r28, 0x3d	; 61
    1148:	de b7       	in	r29, 0x3e	; 62
    114a:	88 e0       	ldi	r24, 0x08	; 8
    114c:	e0 e0       	ldi	r30, 0x00	; 0
    114e:	f6 e0       	ldi	r31, 0x06	; 6
    1150:	86 83       	std	Z+6, r24	; 0x06
    1152:	80 e0       	ldi	r24, 0x00	; 0
    1154:	90 e0       	ldi	r25, 0x00	; 0
    1156:	01 96       	adiw	r24, 0x01	; 1
    1158:	85 33       	cpi	r24, 0x35	; 53
    115a:	91 05       	cpc	r25, r1
    115c:	e1 f7       	brne	.-8      	; 0x1156 <st7565r_init+0x24>
    115e:	88 e0       	ldi	r24, 0x08	; 8
    1160:	e0 e0       	ldi	r30, 0x00	; 0
    1162:	f6 e0       	ldi	r31, 0x06	; 6
    1164:	85 83       	std	Z+5, r24	; 0x05
    1166:	80 e0       	ldi	r24, 0x00	; 0
    1168:	90 e0       	ldi	r25, 0x00	; 0
    116a:	01 96       	adiw	r24, 0x01	; 1
    116c:	85 33       	cpi	r24, 0x35	; 53
    116e:	91 05       	cpc	r25, r1
    1170:	e1 f7       	brne	.-8      	; 0x116a <st7565r_init+0x38>
    1172:	0f 2e       	mov	r0, r31
    1174:	fb e2       	ldi	r31, 0x2B	; 43
    1176:	bf 2e       	mov	r11, r31
    1178:	f0 2d       	mov	r31, r0
    117a:	b9 82       	std	Y+1, r11	; 0x01
    117c:	80 ea       	ldi	r24, 0xA0	; 160
    117e:	99 e0       	ldi	r25, 0x09	; 9
    1180:	0e 94 bf 11 	call	0x237e	; 0x237e <usart_spi_init>
    1184:	c1 2c       	mov	r12, r1
    1186:	d1 2c       	mov	r13, r1
    1188:	76 01       	movw	r14, r12
    118a:	00 e4       	ldi	r16, 0x40	; 64
    118c:	12 e4       	ldi	r17, 0x42	; 66
    118e:	2f e0       	ldi	r18, 0x0F	; 15
    1190:	30 e0       	ldi	r19, 0x00	; 0
    1192:	43 e0       	ldi	r20, 0x03	; 3
    1194:	be 01       	movw	r22, r28
    1196:	6f 5f       	subi	r22, 0xFF	; 255
    1198:	7f 4f       	sbci	r23, 0xFF	; 255
    119a:	80 ea       	ldi	r24, 0xA0	; 160
    119c:	99 e0       	ldi	r25, 0x09	; 9
    119e:	0e 94 ee 11 	call	0x23dc	; 0x23dc <usart_spi_setup_device>
    11a2:	00 e6       	ldi	r16, 0x60	; 96
    11a4:	16 e0       	ldi	r17, 0x06	; 6
    11a6:	ff 24       	eor	r15, r15
    11a8:	f3 94       	inc	r15
    11aa:	f8 01       	movw	r30, r16
    11ac:	f6 82       	std	Z+6, r15	; 0x06
    11ae:	b9 82       	std	Y+1, r11	; 0x01
    11b0:	be 01       	movw	r22, r28
    11b2:	6f 5f       	subi	r22, 0xFF	; 255
    11b4:	7f 4f       	sbci	r23, 0xFF	; 255
    11b6:	80 ea       	ldi	r24, 0xA0	; 160
    11b8:	99 e0       	ldi	r25, 0x09	; 9
    11ba:	0e 94 08 12 	call	0x2410	; 0x2410 <usart_spi_select_device>
    11be:	f8 01       	movw	r30, r16
    11c0:	f6 82       	std	Z+6, r15	; 0x06
    11c2:	e0 ea       	ldi	r30, 0xA0	; 160
    11c4:	f9 e0       	ldi	r31, 0x09	; 9
    11c6:	81 81       	ldd	r24, Z+1	; 0x01
    11c8:	85 ff       	sbrs	r24, 5
    11ca:	fd cf       	rjmp	.-6      	; 0x11c6 <st7565r_init+0x94>
    11cc:	80 ea       	ldi	r24, 0xA0	; 160
    11ce:	80 93 a0 09 	sts	0x09A0, r24
    11d2:	e0 ea       	ldi	r30, 0xA0	; 160
    11d4:	f9 e0       	ldi	r31, 0x09	; 9
    11d6:	81 81       	ldd	r24, Z+1	; 0x01
    11d8:	86 ff       	sbrs	r24, 6
    11da:	fd cf       	rjmp	.-6      	; 0x11d6 <st7565r_init+0xa4>
    11dc:	e0 ea       	ldi	r30, 0xA0	; 160
    11de:	f9 e0       	ldi	r31, 0x09	; 9
    11e0:	80 e4       	ldi	r24, 0x40	; 64
    11e2:	81 83       	std	Z+1, r24	; 0x01
    11e4:	80 81       	ld	r24, Z
    11e6:	be 01       	movw	r22, r28
    11e8:	6f 5f       	subi	r22, 0xFF	; 255
    11ea:	7f 4f       	sbci	r23, 0xFF	; 255
    11ec:	80 ea       	ldi	r24, 0xA0	; 160
    11ee:	99 e0       	ldi	r25, 0x09	; 9
    11f0:	0e 94 1e 12 	call	0x243c	; 0x243c <usart_spi_deselect_device>
    11f4:	8b e2       	ldi	r24, 0x2B	; 43
    11f6:	89 83       	std	Y+1, r24	; 0x01
    11f8:	be 01       	movw	r22, r28
    11fa:	6f 5f       	subi	r22, 0xFF	; 255
    11fc:	7f 4f       	sbci	r23, 0xFF	; 255
    11fe:	80 ea       	ldi	r24, 0xA0	; 160
    1200:	99 e0       	ldi	r25, 0x09	; 9
    1202:	0e 94 08 12 	call	0x2410	; 0x2410 <usart_spi_select_device>
    1206:	81 e0       	ldi	r24, 0x01	; 1
    1208:	e0 e6       	ldi	r30, 0x60	; 96
    120a:	f6 e0       	ldi	r31, 0x06	; 6
    120c:	86 83       	std	Z+6, r24	; 0x06
    120e:	e0 ea       	ldi	r30, 0xA0	; 160
    1210:	f9 e0       	ldi	r31, 0x09	; 9
    1212:	81 81       	ldd	r24, Z+1	; 0x01
    1214:	85 ff       	sbrs	r24, 5
    1216:	fd cf       	rjmp	.-6      	; 0x1212 <st7565r_init+0xe0>
    1218:	86 ea       	ldi	r24, 0xA6	; 166
    121a:	80 93 a0 09 	sts	0x09A0, r24
    121e:	e0 ea       	ldi	r30, 0xA0	; 160
    1220:	f9 e0       	ldi	r31, 0x09	; 9
    1222:	81 81       	ldd	r24, Z+1	; 0x01
    1224:	86 ff       	sbrs	r24, 6
    1226:	fd cf       	rjmp	.-6      	; 0x1222 <st7565r_init+0xf0>
    1228:	e0 ea       	ldi	r30, 0xA0	; 160
    122a:	f9 e0       	ldi	r31, 0x09	; 9
    122c:	80 e4       	ldi	r24, 0x40	; 64
    122e:	81 83       	std	Z+1, r24	; 0x01
    1230:	80 81       	ld	r24, Z
    1232:	be 01       	movw	r22, r28
    1234:	6f 5f       	subi	r22, 0xFF	; 255
    1236:	7f 4f       	sbci	r23, 0xFF	; 255
    1238:	80 ea       	ldi	r24, 0xA0	; 160
    123a:	99 e0       	ldi	r25, 0x09	; 9
    123c:	0e 94 1e 12 	call	0x243c	; 0x243c <usart_spi_deselect_device>
    1240:	8b e2       	ldi	r24, 0x2B	; 43
    1242:	89 83       	std	Y+1, r24	; 0x01
    1244:	be 01       	movw	r22, r28
    1246:	6f 5f       	subi	r22, 0xFF	; 255
    1248:	7f 4f       	sbci	r23, 0xFF	; 255
    124a:	80 ea       	ldi	r24, 0xA0	; 160
    124c:	99 e0       	ldi	r25, 0x09	; 9
    124e:	0e 94 08 12 	call	0x2410	; 0x2410 <usart_spi_select_device>
    1252:	81 e0       	ldi	r24, 0x01	; 1
    1254:	e0 e6       	ldi	r30, 0x60	; 96
    1256:	f6 e0       	ldi	r31, 0x06	; 6
    1258:	86 83       	std	Z+6, r24	; 0x06
    125a:	e0 ea       	ldi	r30, 0xA0	; 160
    125c:	f9 e0       	ldi	r31, 0x09	; 9
    125e:	81 81       	ldd	r24, Z+1	; 0x01
    1260:	85 ff       	sbrs	r24, 5
    1262:	fd cf       	rjmp	.-6      	; 0x125e <st7565r_init+0x12c>
    1264:	88 ec       	ldi	r24, 0xC8	; 200
    1266:	80 93 a0 09 	sts	0x09A0, r24
    126a:	e0 ea       	ldi	r30, 0xA0	; 160
    126c:	f9 e0       	ldi	r31, 0x09	; 9
    126e:	81 81       	ldd	r24, Z+1	; 0x01
    1270:	86 ff       	sbrs	r24, 6
    1272:	fd cf       	rjmp	.-6      	; 0x126e <st7565r_init+0x13c>
    1274:	e0 ea       	ldi	r30, 0xA0	; 160
    1276:	f9 e0       	ldi	r31, 0x09	; 9
    1278:	80 e4       	ldi	r24, 0x40	; 64
    127a:	81 83       	std	Z+1, r24	; 0x01
    127c:	80 81       	ld	r24, Z
    127e:	be 01       	movw	r22, r28
    1280:	6f 5f       	subi	r22, 0xFF	; 255
    1282:	7f 4f       	sbci	r23, 0xFF	; 255
    1284:	80 ea       	ldi	r24, 0xA0	; 160
    1286:	99 e0       	ldi	r25, 0x09	; 9
    1288:	0e 94 1e 12 	call	0x243c	; 0x243c <usart_spi_deselect_device>
    128c:	8b e2       	ldi	r24, 0x2B	; 43
    128e:	89 83       	std	Y+1, r24	; 0x01
    1290:	be 01       	movw	r22, r28
    1292:	6f 5f       	subi	r22, 0xFF	; 255
    1294:	7f 4f       	sbci	r23, 0xFF	; 255
    1296:	80 ea       	ldi	r24, 0xA0	; 160
    1298:	99 e0       	ldi	r25, 0x09	; 9
    129a:	0e 94 08 12 	call	0x2410	; 0x2410 <usart_spi_select_device>
    129e:	81 e0       	ldi	r24, 0x01	; 1
    12a0:	e0 e6       	ldi	r30, 0x60	; 96
    12a2:	f6 e0       	ldi	r31, 0x06	; 6
    12a4:	86 83       	std	Z+6, r24	; 0x06
    12a6:	e0 ea       	ldi	r30, 0xA0	; 160
    12a8:	f9 e0       	ldi	r31, 0x09	; 9
    12aa:	81 81       	ldd	r24, Z+1	; 0x01
    12ac:	85 ff       	sbrs	r24, 5
    12ae:	fd cf       	rjmp	.-6      	; 0x12aa <st7565r_init+0x178>
    12b0:	82 ea       	ldi	r24, 0xA2	; 162
    12b2:	80 93 a0 09 	sts	0x09A0, r24
    12b6:	e0 ea       	ldi	r30, 0xA0	; 160
    12b8:	f9 e0       	ldi	r31, 0x09	; 9
    12ba:	81 81       	ldd	r24, Z+1	; 0x01
    12bc:	86 ff       	sbrs	r24, 6
    12be:	fd cf       	rjmp	.-6      	; 0x12ba <st7565r_init+0x188>
    12c0:	e0 ea       	ldi	r30, 0xA0	; 160
    12c2:	f9 e0       	ldi	r31, 0x09	; 9
    12c4:	80 e4       	ldi	r24, 0x40	; 64
    12c6:	81 83       	std	Z+1, r24	; 0x01
    12c8:	80 81       	ld	r24, Z
    12ca:	be 01       	movw	r22, r28
    12cc:	6f 5f       	subi	r22, 0xFF	; 255
    12ce:	7f 4f       	sbci	r23, 0xFF	; 255
    12d0:	80 ea       	ldi	r24, 0xA0	; 160
    12d2:	99 e0       	ldi	r25, 0x09	; 9
    12d4:	0e 94 1e 12 	call	0x243c	; 0x243c <usart_spi_deselect_device>
    12d8:	8b e2       	ldi	r24, 0x2B	; 43
    12da:	89 83       	std	Y+1, r24	; 0x01
    12dc:	be 01       	movw	r22, r28
    12de:	6f 5f       	subi	r22, 0xFF	; 255
    12e0:	7f 4f       	sbci	r23, 0xFF	; 255
    12e2:	80 ea       	ldi	r24, 0xA0	; 160
    12e4:	99 e0       	ldi	r25, 0x09	; 9
    12e6:	0e 94 08 12 	call	0x2410	; 0x2410 <usart_spi_select_device>
    12ea:	81 e0       	ldi	r24, 0x01	; 1
    12ec:	e0 e6       	ldi	r30, 0x60	; 96
    12ee:	f6 e0       	ldi	r31, 0x06	; 6
    12f0:	86 83       	std	Z+6, r24	; 0x06
    12f2:	e0 ea       	ldi	r30, 0xA0	; 160
    12f4:	f9 e0       	ldi	r31, 0x09	; 9
    12f6:	81 81       	ldd	r24, Z+1	; 0x01
    12f8:	85 ff       	sbrs	r24, 5
    12fa:	fd cf       	rjmp	.-6      	; 0x12f6 <st7565r_init+0x1c4>
    12fc:	8f e2       	ldi	r24, 0x2F	; 47
    12fe:	80 93 a0 09 	sts	0x09A0, r24
    1302:	e0 ea       	ldi	r30, 0xA0	; 160
    1304:	f9 e0       	ldi	r31, 0x09	; 9
    1306:	81 81       	ldd	r24, Z+1	; 0x01
    1308:	86 ff       	sbrs	r24, 6
    130a:	fd cf       	rjmp	.-6      	; 0x1306 <st7565r_init+0x1d4>
    130c:	e0 ea       	ldi	r30, 0xA0	; 160
    130e:	f9 e0       	ldi	r31, 0x09	; 9
    1310:	80 e4       	ldi	r24, 0x40	; 64
    1312:	81 83       	std	Z+1, r24	; 0x01
    1314:	80 81       	ld	r24, Z
    1316:	be 01       	movw	r22, r28
    1318:	6f 5f       	subi	r22, 0xFF	; 255
    131a:	7f 4f       	sbci	r23, 0xFF	; 255
    131c:	80 ea       	ldi	r24, 0xA0	; 160
    131e:	99 e0       	ldi	r25, 0x09	; 9
    1320:	0e 94 1e 12 	call	0x243c	; 0x243c <usart_spi_deselect_device>
    1324:	8b e2       	ldi	r24, 0x2B	; 43
    1326:	89 83       	std	Y+1, r24	; 0x01
    1328:	be 01       	movw	r22, r28
    132a:	6f 5f       	subi	r22, 0xFF	; 255
    132c:	7f 4f       	sbci	r23, 0xFF	; 255
    132e:	80 ea       	ldi	r24, 0xA0	; 160
    1330:	99 e0       	ldi	r25, 0x09	; 9
    1332:	0e 94 08 12 	call	0x2410	; 0x2410 <usart_spi_select_device>
    1336:	81 e0       	ldi	r24, 0x01	; 1
    1338:	e0 e6       	ldi	r30, 0x60	; 96
    133a:	f6 e0       	ldi	r31, 0x06	; 6
    133c:	86 83       	std	Z+6, r24	; 0x06
    133e:	e0 ea       	ldi	r30, 0xA0	; 160
    1340:	f9 e0       	ldi	r31, 0x09	; 9
    1342:	81 81       	ldd	r24, Z+1	; 0x01
    1344:	85 ff       	sbrs	r24, 5
    1346:	fd cf       	rjmp	.-6      	; 0x1342 <st7565r_init+0x210>
    1348:	88 ef       	ldi	r24, 0xF8	; 248
    134a:	80 93 a0 09 	sts	0x09A0, r24
    134e:	e0 ea       	ldi	r30, 0xA0	; 160
    1350:	f9 e0       	ldi	r31, 0x09	; 9
    1352:	81 81       	ldd	r24, Z+1	; 0x01
    1354:	86 ff       	sbrs	r24, 6
    1356:	fd cf       	rjmp	.-6      	; 0x1352 <st7565r_init+0x220>
    1358:	e0 ea       	ldi	r30, 0xA0	; 160
    135a:	f9 e0       	ldi	r31, 0x09	; 9
    135c:	80 e4       	ldi	r24, 0x40	; 64
    135e:	81 83       	std	Z+1, r24	; 0x01
    1360:	80 81       	ld	r24, Z
    1362:	be 01       	movw	r22, r28
    1364:	6f 5f       	subi	r22, 0xFF	; 255
    1366:	7f 4f       	sbci	r23, 0xFF	; 255
    1368:	80 ea       	ldi	r24, 0xA0	; 160
    136a:	99 e0       	ldi	r25, 0x09	; 9
    136c:	0e 94 1e 12 	call	0x243c	; 0x243c <usart_spi_deselect_device>
    1370:	8b e2       	ldi	r24, 0x2B	; 43
    1372:	89 83       	std	Y+1, r24	; 0x01
    1374:	be 01       	movw	r22, r28
    1376:	6f 5f       	subi	r22, 0xFF	; 255
    1378:	7f 4f       	sbci	r23, 0xFF	; 255
    137a:	80 ea       	ldi	r24, 0xA0	; 160
    137c:	99 e0       	ldi	r25, 0x09	; 9
    137e:	0e 94 08 12 	call	0x2410	; 0x2410 <usart_spi_select_device>
    1382:	81 e0       	ldi	r24, 0x01	; 1
    1384:	e0 e6       	ldi	r30, 0x60	; 96
    1386:	f6 e0       	ldi	r31, 0x06	; 6
    1388:	86 83       	std	Z+6, r24	; 0x06
    138a:	e0 ea       	ldi	r30, 0xA0	; 160
    138c:	f9 e0       	ldi	r31, 0x09	; 9
    138e:	81 81       	ldd	r24, Z+1	; 0x01
    1390:	85 ff       	sbrs	r24, 5
    1392:	fd cf       	rjmp	.-6      	; 0x138e <st7565r_init+0x25c>
    1394:	10 92 a0 09 	sts	0x09A0, r1
    1398:	e0 ea       	ldi	r30, 0xA0	; 160
    139a:	f9 e0       	ldi	r31, 0x09	; 9
    139c:	81 81       	ldd	r24, Z+1	; 0x01
    139e:	86 ff       	sbrs	r24, 6
    13a0:	fd cf       	rjmp	.-6      	; 0x139c <st7565r_init+0x26a>
    13a2:	e0 ea       	ldi	r30, 0xA0	; 160
    13a4:	f9 e0       	ldi	r31, 0x09	; 9
    13a6:	80 e4       	ldi	r24, 0x40	; 64
    13a8:	81 83       	std	Z+1, r24	; 0x01
    13aa:	80 81       	ld	r24, Z
    13ac:	be 01       	movw	r22, r28
    13ae:	6f 5f       	subi	r22, 0xFF	; 255
    13b0:	7f 4f       	sbci	r23, 0xFF	; 255
    13b2:	80 ea       	ldi	r24, 0xA0	; 160
    13b4:	99 e0       	ldi	r25, 0x09	; 9
    13b6:	0e 94 1e 12 	call	0x243c	; 0x243c <usart_spi_deselect_device>
    13ba:	8b e2       	ldi	r24, 0x2B	; 43
    13bc:	89 83       	std	Y+1, r24	; 0x01
    13be:	be 01       	movw	r22, r28
    13c0:	6f 5f       	subi	r22, 0xFF	; 255
    13c2:	7f 4f       	sbci	r23, 0xFF	; 255
    13c4:	80 ea       	ldi	r24, 0xA0	; 160
    13c6:	99 e0       	ldi	r25, 0x09	; 9
    13c8:	0e 94 08 12 	call	0x2410	; 0x2410 <usart_spi_select_device>
    13cc:	81 e0       	ldi	r24, 0x01	; 1
    13ce:	e0 e6       	ldi	r30, 0x60	; 96
    13d0:	f6 e0       	ldi	r31, 0x06	; 6
    13d2:	86 83       	std	Z+6, r24	; 0x06
    13d4:	e0 ea       	ldi	r30, 0xA0	; 160
    13d6:	f9 e0       	ldi	r31, 0x09	; 9
    13d8:	81 81       	ldd	r24, Z+1	; 0x01
    13da:	85 ff       	sbrs	r24, 5
    13dc:	fd cf       	rjmp	.-6      	; 0x13d8 <st7565r_init+0x2a6>
    13de:	81 e2       	ldi	r24, 0x21	; 33
    13e0:	80 93 a0 09 	sts	0x09A0, r24
    13e4:	e0 ea       	ldi	r30, 0xA0	; 160
    13e6:	f9 e0       	ldi	r31, 0x09	; 9
    13e8:	81 81       	ldd	r24, Z+1	; 0x01
    13ea:	86 ff       	sbrs	r24, 6
    13ec:	fd cf       	rjmp	.-6      	; 0x13e8 <st7565r_init+0x2b6>
    13ee:	e0 ea       	ldi	r30, 0xA0	; 160
    13f0:	f9 e0       	ldi	r31, 0x09	; 9
    13f2:	80 e4       	ldi	r24, 0x40	; 64
    13f4:	81 83       	std	Z+1, r24	; 0x01
    13f6:	80 81       	ld	r24, Z
    13f8:	be 01       	movw	r22, r28
    13fa:	6f 5f       	subi	r22, 0xFF	; 255
    13fc:	7f 4f       	sbci	r23, 0xFF	; 255
    13fe:	80 ea       	ldi	r24, 0xA0	; 160
    1400:	99 e0       	ldi	r25, 0x09	; 9
    1402:	0e 94 1e 12 	call	0x243c	; 0x243c <usart_spi_deselect_device>
    1406:	8b e2       	ldi	r24, 0x2B	; 43
    1408:	89 83       	std	Y+1, r24	; 0x01
    140a:	be 01       	movw	r22, r28
    140c:	6f 5f       	subi	r22, 0xFF	; 255
    140e:	7f 4f       	sbci	r23, 0xFF	; 255
    1410:	80 ea       	ldi	r24, 0xA0	; 160
    1412:	99 e0       	ldi	r25, 0x09	; 9
    1414:	fd d7       	rcall	.+4090   	; 0x2410 <usart_spi_select_device>
    1416:	81 e0       	ldi	r24, 0x01	; 1
    1418:	e0 e6       	ldi	r30, 0x60	; 96
    141a:	f6 e0       	ldi	r31, 0x06	; 6
    141c:	86 83       	std	Z+6, r24	; 0x06
    141e:	e0 ea       	ldi	r30, 0xA0	; 160
    1420:	f9 e0       	ldi	r31, 0x09	; 9
    1422:	81 81       	ldd	r24, Z+1	; 0x01
    1424:	85 ff       	sbrs	r24, 5
    1426:	fd cf       	rjmp	.-6      	; 0x1422 <st7565r_init+0x2f0>
    1428:	81 e8       	ldi	r24, 0x81	; 129
    142a:	80 93 a0 09 	sts	0x09A0, r24
    142e:	e0 ea       	ldi	r30, 0xA0	; 160
    1430:	f9 e0       	ldi	r31, 0x09	; 9
    1432:	81 81       	ldd	r24, Z+1	; 0x01
    1434:	86 ff       	sbrs	r24, 6
    1436:	fd cf       	rjmp	.-6      	; 0x1432 <st7565r_init+0x300>
    1438:	e0 ea       	ldi	r30, 0xA0	; 160
    143a:	f9 e0       	ldi	r31, 0x09	; 9
    143c:	80 e4       	ldi	r24, 0x40	; 64
    143e:	81 83       	std	Z+1, r24	; 0x01
    1440:	80 81       	ld	r24, Z
    1442:	be 01       	movw	r22, r28
    1444:	6f 5f       	subi	r22, 0xFF	; 255
    1446:	7f 4f       	sbci	r23, 0xFF	; 255
    1448:	80 ea       	ldi	r24, 0xA0	; 160
    144a:	99 e0       	ldi	r25, 0x09	; 9
    144c:	f7 d7       	rcall	.+4078   	; 0x243c <usart_spi_deselect_device>
    144e:	8b e2       	ldi	r24, 0x2B	; 43
    1450:	89 83       	std	Y+1, r24	; 0x01
    1452:	be 01       	movw	r22, r28
    1454:	6f 5f       	subi	r22, 0xFF	; 255
    1456:	7f 4f       	sbci	r23, 0xFF	; 255
    1458:	80 ea       	ldi	r24, 0xA0	; 160
    145a:	99 e0       	ldi	r25, 0x09	; 9
    145c:	d9 d7       	rcall	.+4018   	; 0x2410 <usart_spi_select_device>
    145e:	81 e0       	ldi	r24, 0x01	; 1
    1460:	e0 e6       	ldi	r30, 0x60	; 96
    1462:	f6 e0       	ldi	r31, 0x06	; 6
    1464:	86 83       	std	Z+6, r24	; 0x06
    1466:	e0 ea       	ldi	r30, 0xA0	; 160
    1468:	f9 e0       	ldi	r31, 0x09	; 9
    146a:	81 81       	ldd	r24, Z+1	; 0x01
    146c:	85 ff       	sbrs	r24, 5
    146e:	fd cf       	rjmp	.-6      	; 0x146a <st7565r_init+0x338>
    1470:	81 e2       	ldi	r24, 0x21	; 33
    1472:	80 93 a0 09 	sts	0x09A0, r24
    1476:	e0 ea       	ldi	r30, 0xA0	; 160
    1478:	f9 e0       	ldi	r31, 0x09	; 9
    147a:	81 81       	ldd	r24, Z+1	; 0x01
    147c:	86 ff       	sbrs	r24, 6
    147e:	fd cf       	rjmp	.-6      	; 0x147a <st7565r_init+0x348>
    1480:	e0 ea       	ldi	r30, 0xA0	; 160
    1482:	f9 e0       	ldi	r31, 0x09	; 9
    1484:	80 e4       	ldi	r24, 0x40	; 64
    1486:	81 83       	std	Z+1, r24	; 0x01
    1488:	80 81       	ld	r24, Z
    148a:	be 01       	movw	r22, r28
    148c:	6f 5f       	subi	r22, 0xFF	; 255
    148e:	7f 4f       	sbci	r23, 0xFF	; 255
    1490:	80 ea       	ldi	r24, 0xA0	; 160
    1492:	99 e0       	ldi	r25, 0x09	; 9
    1494:	d3 d7       	rcall	.+4006   	; 0x243c <usart_spi_deselect_device>
    1496:	8b e2       	ldi	r24, 0x2B	; 43
    1498:	89 83       	std	Y+1, r24	; 0x01
    149a:	be 01       	movw	r22, r28
    149c:	6f 5f       	subi	r22, 0xFF	; 255
    149e:	7f 4f       	sbci	r23, 0xFF	; 255
    14a0:	80 ea       	ldi	r24, 0xA0	; 160
    14a2:	99 e0       	ldi	r25, 0x09	; 9
    14a4:	b5 d7       	rcall	.+3946   	; 0x2410 <usart_spi_select_device>
    14a6:	81 e0       	ldi	r24, 0x01	; 1
    14a8:	e0 e6       	ldi	r30, 0x60	; 96
    14aa:	f6 e0       	ldi	r31, 0x06	; 6
    14ac:	86 83       	std	Z+6, r24	; 0x06
    14ae:	e0 ea       	ldi	r30, 0xA0	; 160
    14b0:	f9 e0       	ldi	r31, 0x09	; 9
    14b2:	81 81       	ldd	r24, Z+1	; 0x01
    14b4:	85 ff       	sbrs	r24, 5
    14b6:	fd cf       	rjmp	.-6      	; 0x14b2 <st7565r_init+0x380>
    14b8:	8f ea       	ldi	r24, 0xAF	; 175
    14ba:	80 93 a0 09 	sts	0x09A0, r24
    14be:	e0 ea       	ldi	r30, 0xA0	; 160
    14c0:	f9 e0       	ldi	r31, 0x09	; 9
    14c2:	81 81       	ldd	r24, Z+1	; 0x01
    14c4:	86 ff       	sbrs	r24, 6
    14c6:	fd cf       	rjmp	.-6      	; 0x14c2 <st7565r_init+0x390>
    14c8:	e0 ea       	ldi	r30, 0xA0	; 160
    14ca:	f9 e0       	ldi	r31, 0x09	; 9
    14cc:	80 e4       	ldi	r24, 0x40	; 64
    14ce:	81 83       	std	Z+1, r24	; 0x01
    14d0:	80 81       	ld	r24, Z
    14d2:	be 01       	movw	r22, r28
    14d4:	6f 5f       	subi	r22, 0xFF	; 255
    14d6:	7f 4f       	sbci	r23, 0xFF	; 255
    14d8:	80 ea       	ldi	r24, 0xA0	; 160
    14da:	99 e0       	ldi	r25, 0x09	; 9
    14dc:	af d7       	rcall	.+3934   	; 0x243c <usart_spi_deselect_device>
    14de:	0f 90       	pop	r0
    14e0:	df 91       	pop	r29
    14e2:	cf 91       	pop	r28
    14e4:	1f 91       	pop	r17
    14e6:	0f 91       	pop	r16
    14e8:	ff 90       	pop	r15
    14ea:	ef 90       	pop	r14
    14ec:	df 90       	pop	r13
    14ee:	cf 90       	pop	r12
    14f0:	bf 90       	pop	r11
    14f2:	08 95       	ret

000014f4 <gfx_mono_st7565r_put_byte>:
    14f4:	ff 92       	push	r15
    14f6:	0f 93       	push	r16
    14f8:	1f 93       	push	r17
    14fa:	cf 93       	push	r28
    14fc:	df 93       	push	r29
    14fe:	1f 92       	push	r1
    1500:	cd b7       	in	r28, 0x3d	; 61
    1502:	de b7       	in	r29, 0x3e	; 62
    1504:	f8 2e       	mov	r15, r24
    1506:	06 2f       	mov	r16, r22
    1508:	14 2f       	mov	r17, r20
    150a:	b3 d7       	rcall	.+3942   	; 0x2472 <gfx_mono_framebuffer_put_byte>
    150c:	8f 2d       	mov	r24, r15
    150e:	8f 70       	andi	r24, 0x0F	; 15
    1510:	80 6b       	ori	r24, 0xB0	; 176
    1512:	f8 2e       	mov	r15, r24
    1514:	8b e2       	ldi	r24, 0x2B	; 43
    1516:	89 83       	std	Y+1, r24	; 0x01
    1518:	be 01       	movw	r22, r28
    151a:	6f 5f       	subi	r22, 0xFF	; 255
    151c:	7f 4f       	sbci	r23, 0xFF	; 255
    151e:	80 ea       	ldi	r24, 0xA0	; 160
    1520:	99 e0       	ldi	r25, 0x09	; 9
    1522:	76 d7       	rcall	.+3820   	; 0x2410 <usart_spi_select_device>
    1524:	81 e0       	ldi	r24, 0x01	; 1
    1526:	e0 e6       	ldi	r30, 0x60	; 96
    1528:	f6 e0       	ldi	r31, 0x06	; 6
    152a:	86 83       	std	Z+6, r24	; 0x06
    152c:	e0 ea       	ldi	r30, 0xA0	; 160
    152e:	f9 e0       	ldi	r31, 0x09	; 9
    1530:	91 81       	ldd	r25, Z+1	; 0x01
    1532:	95 ff       	sbrs	r25, 5
    1534:	fd cf       	rjmp	.-6      	; 0x1530 <gfx_mono_st7565r_put_byte+0x3c>
    1536:	f0 92 a0 09 	sts	0x09A0, r15
    153a:	e0 ea       	ldi	r30, 0xA0	; 160
    153c:	f9 e0       	ldi	r31, 0x09	; 9
    153e:	81 81       	ldd	r24, Z+1	; 0x01
    1540:	86 ff       	sbrs	r24, 6
    1542:	fd cf       	rjmp	.-6      	; 0x153e <gfx_mono_st7565r_put_byte+0x4a>
    1544:	e0 ea       	ldi	r30, 0xA0	; 160
    1546:	f9 e0       	ldi	r31, 0x09	; 9
    1548:	80 e4       	ldi	r24, 0x40	; 64
    154a:	81 83       	std	Z+1, r24	; 0x01
    154c:	80 81       	ld	r24, Z
    154e:	be 01       	movw	r22, r28
    1550:	6f 5f       	subi	r22, 0xFF	; 255
    1552:	7f 4f       	sbci	r23, 0xFF	; 255
    1554:	80 ea       	ldi	r24, 0xA0	; 160
    1556:	99 e0       	ldi	r25, 0x09	; 9
    1558:	71 d7       	rcall	.+3810   	; 0x243c <usart_spi_deselect_device>
    155a:	80 2f       	mov	r24, r16
    155c:	8f 77       	andi	r24, 0x7F	; 127
    155e:	82 95       	swap	r24
    1560:	8f 70       	andi	r24, 0x0F	; 15
    1562:	80 61       	ori	r24, 0x10	; 16
    1564:	f8 2e       	mov	r15, r24
    1566:	8b e2       	ldi	r24, 0x2B	; 43
    1568:	89 83       	std	Y+1, r24	; 0x01
    156a:	be 01       	movw	r22, r28
    156c:	6f 5f       	subi	r22, 0xFF	; 255
    156e:	7f 4f       	sbci	r23, 0xFF	; 255
    1570:	80 ea       	ldi	r24, 0xA0	; 160
    1572:	99 e0       	ldi	r25, 0x09	; 9
    1574:	4d d7       	rcall	.+3738   	; 0x2410 <usart_spi_select_device>
    1576:	81 e0       	ldi	r24, 0x01	; 1
    1578:	e0 e6       	ldi	r30, 0x60	; 96
    157a:	f6 e0       	ldi	r31, 0x06	; 6
    157c:	86 83       	std	Z+6, r24	; 0x06
    157e:	e0 ea       	ldi	r30, 0xA0	; 160
    1580:	f9 e0       	ldi	r31, 0x09	; 9
    1582:	81 81       	ldd	r24, Z+1	; 0x01
    1584:	85 ff       	sbrs	r24, 5
    1586:	fd cf       	rjmp	.-6      	; 0x1582 <gfx_mono_st7565r_put_byte+0x8e>
    1588:	f0 92 a0 09 	sts	0x09A0, r15
    158c:	e0 ea       	ldi	r30, 0xA0	; 160
    158e:	f9 e0       	ldi	r31, 0x09	; 9
    1590:	81 81       	ldd	r24, Z+1	; 0x01
    1592:	86 ff       	sbrs	r24, 6
    1594:	fd cf       	rjmp	.-6      	; 0x1590 <gfx_mono_st7565r_put_byte+0x9c>
    1596:	e0 ea       	ldi	r30, 0xA0	; 160
    1598:	f9 e0       	ldi	r31, 0x09	; 9
    159a:	80 e4       	ldi	r24, 0x40	; 64
    159c:	81 83       	std	Z+1, r24	; 0x01
    159e:	80 81       	ld	r24, Z
    15a0:	be 01       	movw	r22, r28
    15a2:	6f 5f       	subi	r22, 0xFF	; 255
    15a4:	7f 4f       	sbci	r23, 0xFF	; 255
    15a6:	80 ea       	ldi	r24, 0xA0	; 160
    15a8:	99 e0       	ldi	r25, 0x09	; 9
    15aa:	48 d7       	rcall	.+3728   	; 0x243c <usart_spi_deselect_device>
    15ac:	0f 70       	andi	r16, 0x0F	; 15
    15ae:	8b e2       	ldi	r24, 0x2B	; 43
    15b0:	89 83       	std	Y+1, r24	; 0x01
    15b2:	be 01       	movw	r22, r28
    15b4:	6f 5f       	subi	r22, 0xFF	; 255
    15b6:	7f 4f       	sbci	r23, 0xFF	; 255
    15b8:	80 ea       	ldi	r24, 0xA0	; 160
    15ba:	99 e0       	ldi	r25, 0x09	; 9
    15bc:	29 d7       	rcall	.+3666   	; 0x2410 <usart_spi_select_device>
    15be:	81 e0       	ldi	r24, 0x01	; 1
    15c0:	e0 e6       	ldi	r30, 0x60	; 96
    15c2:	f6 e0       	ldi	r31, 0x06	; 6
    15c4:	86 83       	std	Z+6, r24	; 0x06
    15c6:	e0 ea       	ldi	r30, 0xA0	; 160
    15c8:	f9 e0       	ldi	r31, 0x09	; 9
    15ca:	81 81       	ldd	r24, Z+1	; 0x01
    15cc:	85 ff       	sbrs	r24, 5
    15ce:	fd cf       	rjmp	.-6      	; 0x15ca <gfx_mono_st7565r_put_byte+0xd6>
    15d0:	00 93 a0 09 	sts	0x09A0, r16
    15d4:	e0 ea       	ldi	r30, 0xA0	; 160
    15d6:	f9 e0       	ldi	r31, 0x09	; 9
    15d8:	81 81       	ldd	r24, Z+1	; 0x01
    15da:	86 ff       	sbrs	r24, 6
    15dc:	fd cf       	rjmp	.-6      	; 0x15d8 <gfx_mono_st7565r_put_byte+0xe4>
    15de:	e0 ea       	ldi	r30, 0xA0	; 160
    15e0:	f9 e0       	ldi	r31, 0x09	; 9
    15e2:	80 e4       	ldi	r24, 0x40	; 64
    15e4:	81 83       	std	Z+1, r24	; 0x01
    15e6:	80 81       	ld	r24, Z
    15e8:	be 01       	movw	r22, r28
    15ea:	6f 5f       	subi	r22, 0xFF	; 255
    15ec:	7f 4f       	sbci	r23, 0xFF	; 255
    15ee:	80 ea       	ldi	r24, 0xA0	; 160
    15f0:	99 e0       	ldi	r25, 0x09	; 9
    15f2:	24 d7       	rcall	.+3656   	; 0x243c <usart_spi_deselect_device>
    15f4:	8b e2       	ldi	r24, 0x2B	; 43
    15f6:	89 83       	std	Y+1, r24	; 0x01
    15f8:	be 01       	movw	r22, r28
    15fa:	6f 5f       	subi	r22, 0xFF	; 255
    15fc:	7f 4f       	sbci	r23, 0xFF	; 255
    15fe:	80 ea       	ldi	r24, 0xA0	; 160
    1600:	99 e0       	ldi	r25, 0x09	; 9
    1602:	06 d7       	rcall	.+3596   	; 0x2410 <usart_spi_select_device>
    1604:	81 e0       	ldi	r24, 0x01	; 1
    1606:	e0 e6       	ldi	r30, 0x60	; 96
    1608:	f6 e0       	ldi	r31, 0x06	; 6
    160a:	85 83       	std	Z+5, r24	; 0x05
    160c:	e0 ea       	ldi	r30, 0xA0	; 160
    160e:	f9 e0       	ldi	r31, 0x09	; 9
    1610:	81 81       	ldd	r24, Z+1	; 0x01
    1612:	85 ff       	sbrs	r24, 5
    1614:	fd cf       	rjmp	.-6      	; 0x1610 <gfx_mono_st7565r_put_byte+0x11c>
    1616:	10 93 a0 09 	sts	0x09A0, r17
    161a:	e0 ea       	ldi	r30, 0xA0	; 160
    161c:	f9 e0       	ldi	r31, 0x09	; 9
    161e:	81 81       	ldd	r24, Z+1	; 0x01
    1620:	86 ff       	sbrs	r24, 6
    1622:	fd cf       	rjmp	.-6      	; 0x161e <gfx_mono_st7565r_put_byte+0x12a>
    1624:	e0 ea       	ldi	r30, 0xA0	; 160
    1626:	f9 e0       	ldi	r31, 0x09	; 9
    1628:	80 e4       	ldi	r24, 0x40	; 64
    162a:	81 83       	std	Z+1, r24	; 0x01
    162c:	80 81       	ld	r24, Z
    162e:	81 e0       	ldi	r24, 0x01	; 1
    1630:	e0 e6       	ldi	r30, 0x60	; 96
    1632:	f6 e0       	ldi	r31, 0x06	; 6
    1634:	86 83       	std	Z+6, r24	; 0x06
    1636:	be 01       	movw	r22, r28
    1638:	6f 5f       	subi	r22, 0xFF	; 255
    163a:	7f 4f       	sbci	r23, 0xFF	; 255
    163c:	80 ea       	ldi	r24, 0xA0	; 160
    163e:	99 e0       	ldi	r25, 0x09	; 9
    1640:	fd d6       	rcall	.+3578   	; 0x243c <usart_spi_deselect_device>
    1642:	0f 90       	pop	r0
    1644:	df 91       	pop	r29
    1646:	cf 91       	pop	r28
    1648:	1f 91       	pop	r17
    164a:	0f 91       	pop	r16
    164c:	ff 90       	pop	r15
    164e:	08 95       	ret

00001650 <gfx_mono_st7565r_init>:
    1650:	0f 93       	push	r16
    1652:	1f 93       	push	r17
    1654:	cf 93       	push	r28
    1656:	df 93       	push	r29
    1658:	1f 92       	push	r1
    165a:	cd b7       	in	r28, 0x3d	; 61
    165c:	de b7       	in	r29, 0x3e	; 62
    165e:	8b ea       	ldi	r24, 0xAB	; 171
    1660:	90 e2       	ldi	r25, 0x20	; 32
    1662:	02 d7       	rcall	.+3588   	; 0x2468 <gfx_mono_set_framebuffer>
    1664:	66 dd       	rcall	.-1332   	; 0x1132 <st7565r_init>
    1666:	8b e2       	ldi	r24, 0x2B	; 43
    1668:	89 83       	std	Y+1, r24	; 0x01
    166a:	be 01       	movw	r22, r28
    166c:	6f 5f       	subi	r22, 0xFF	; 255
    166e:	7f 4f       	sbci	r23, 0xFF	; 255
    1670:	80 ea       	ldi	r24, 0xA0	; 160
    1672:	99 e0       	ldi	r25, 0x09	; 9
    1674:	cd d6       	rcall	.+3482   	; 0x2410 <usart_spi_select_device>
    1676:	81 e0       	ldi	r24, 0x01	; 1
    1678:	e0 e6       	ldi	r30, 0x60	; 96
    167a:	f6 e0       	ldi	r31, 0x06	; 6
    167c:	86 83       	std	Z+6, r24	; 0x06
    167e:	e0 ea       	ldi	r30, 0xA0	; 160
    1680:	f9 e0       	ldi	r31, 0x09	; 9
    1682:	81 81       	ldd	r24, Z+1	; 0x01
    1684:	85 ff       	sbrs	r24, 5
    1686:	fd cf       	rjmp	.-6      	; 0x1682 <gfx_mono_st7565r_init+0x32>
    1688:	80 e4       	ldi	r24, 0x40	; 64
    168a:	80 93 a0 09 	sts	0x09A0, r24
    168e:	e0 ea       	ldi	r30, 0xA0	; 160
    1690:	f9 e0       	ldi	r31, 0x09	; 9
    1692:	81 81       	ldd	r24, Z+1	; 0x01
    1694:	86 ff       	sbrs	r24, 6
    1696:	fd cf       	rjmp	.-6      	; 0x1692 <gfx_mono_st7565r_init+0x42>
    1698:	e0 ea       	ldi	r30, 0xA0	; 160
    169a:	f9 e0       	ldi	r31, 0x09	; 9
    169c:	80 e4       	ldi	r24, 0x40	; 64
    169e:	81 83       	std	Z+1, r24	; 0x01
    16a0:	80 81       	ld	r24, Z
    16a2:	be 01       	movw	r22, r28
    16a4:	6f 5f       	subi	r22, 0xFF	; 255
    16a6:	7f 4f       	sbci	r23, 0xFF	; 255
    16a8:	80 ea       	ldi	r24, 0xA0	; 160
    16aa:	99 e0       	ldi	r25, 0x09	; 9
    16ac:	c7 d6       	rcall	.+3470   	; 0x243c <usart_spi_deselect_device>
    16ae:	00 e0       	ldi	r16, 0x00	; 0
    16b0:	0a c0       	rjmp	.+20     	; 0x16c6 <gfx_mono_st7565r_init+0x76>
    16b2:	40 e0       	ldi	r20, 0x00	; 0
    16b4:	61 2f       	mov	r22, r17
    16b6:	80 2f       	mov	r24, r16
    16b8:	1d df       	rcall	.-454    	; 0x14f4 <gfx_mono_st7565r_put_byte>
    16ba:	1f 5f       	subi	r17, 0xFF	; 255
    16bc:	10 38       	cpi	r17, 0x80	; 128
    16be:	c9 f7       	brne	.-14     	; 0x16b2 <gfx_mono_st7565r_init+0x62>
    16c0:	0f 5f       	subi	r16, 0xFF	; 255
    16c2:	04 30       	cpi	r16, 0x04	; 4
    16c4:	11 f0       	breq	.+4      	; 0x16ca <gfx_mono_st7565r_init+0x7a>
    16c6:	10 e0       	ldi	r17, 0x00	; 0
    16c8:	f4 cf       	rjmp	.-24     	; 0x16b2 <gfx_mono_st7565r_init+0x62>
    16ca:	0f 90       	pop	r0
    16cc:	df 91       	pop	r29
    16ce:	cf 91       	pop	r28
    16d0:	1f 91       	pop	r17
    16d2:	0f 91       	pop	r16
    16d4:	08 95       	ret

000016d6 <gfx_mono_st7565r_draw_pixel>:
    16d6:	ff 92       	push	r15
    16d8:	0f 93       	push	r16
    16da:	1f 93       	push	r17
    16dc:	cf 93       	push	r28
    16de:	df 93       	push	r29
    16e0:	18 2f       	mov	r17, r24
    16e2:	04 2f       	mov	r16, r20
    16e4:	88 23       	and	r24, r24
    16e6:	74 f1       	brlt	.+92     	; 0x1744 <gfx_mono_st7565r_draw_pixel+0x6e>
    16e8:	60 32       	cpi	r22, 0x20	; 32
    16ea:	60 f5       	brcc	.+88     	; 0x1744 <gfx_mono_st7565r_draw_pixel+0x6e>
    16ec:	f6 2e       	mov	r15, r22
    16ee:	f6 94       	lsr	r15
    16f0:	f6 94       	lsr	r15
    16f2:	f6 94       	lsr	r15
    16f4:	2f 2d       	mov	r18, r15
    16f6:	30 e0       	ldi	r19, 0x00	; 0
    16f8:	31 95       	neg	r19
    16fa:	21 95       	neg	r18
    16fc:	31 09       	sbc	r19, r1
    16fe:	22 0f       	add	r18, r18
    1700:	33 1f       	adc	r19, r19
    1702:	22 0f       	add	r18, r18
    1704:	33 1f       	adc	r19, r19
    1706:	22 0f       	add	r18, r18
    1708:	33 1f       	adc	r19, r19
    170a:	26 0f       	add	r18, r22
    170c:	31 1d       	adc	r19, r1
    170e:	e1 e0       	ldi	r30, 0x01	; 1
    1710:	f0 e0       	ldi	r31, 0x00	; 0
    1712:	ef 01       	movw	r28, r30
    1714:	02 c0       	rjmp	.+4      	; 0x171a <gfx_mono_st7565r_draw_pixel+0x44>
    1716:	cc 0f       	add	r28, r28
    1718:	dd 1f       	adc	r29, r29
    171a:	2a 95       	dec	r18
    171c:	e2 f7       	brpl	.-8      	; 0x1716 <gfx_mono_st7565r_draw_pixel+0x40>
    171e:	68 2f       	mov	r22, r24
    1720:	8f 2d       	mov	r24, r15
    1722:	b6 d6       	rcall	.+3436   	; 0x2490 <gfx_mono_framebuffer_get_byte>
    1724:	01 30       	cpi	r16, 0x01	; 1
    1726:	21 f0       	breq	.+8      	; 0x1730 <gfx_mono_st7565r_draw_pixel+0x5a>
    1728:	28 f0       	brcs	.+10     	; 0x1734 <gfx_mono_st7565r_draw_pixel+0x5e>
    172a:	02 30       	cpi	r16, 0x02	; 2
    172c:	31 f0       	breq	.+12     	; 0x173a <gfx_mono_st7565r_draw_pixel+0x64>
    172e:	06 c0       	rjmp	.+12     	; 0x173c <gfx_mono_st7565r_draw_pixel+0x66>
    1730:	8c 2b       	or	r24, r28
    1732:	04 c0       	rjmp	.+8      	; 0x173c <gfx_mono_st7565r_draw_pixel+0x66>
    1734:	c0 95       	com	r28
    1736:	8c 23       	and	r24, r28
    1738:	01 c0       	rjmp	.+2      	; 0x173c <gfx_mono_st7565r_draw_pixel+0x66>
    173a:	8c 27       	eor	r24, r28
    173c:	48 2f       	mov	r20, r24
    173e:	61 2f       	mov	r22, r17
    1740:	8f 2d       	mov	r24, r15
    1742:	d8 de       	rcall	.-592    	; 0x14f4 <gfx_mono_st7565r_put_byte>
    1744:	df 91       	pop	r29
    1746:	cf 91       	pop	r28
    1748:	1f 91       	pop	r17
    174a:	0f 91       	pop	r16
    174c:	ff 90       	pop	r15
    174e:	08 95       	ret

00001750 <gfx_mono_st7565r_get_byte>:
    1750:	9f c6       	rjmp	.+3390   	; 0x2490 <gfx_mono_framebuffer_get_byte>
    1752:	08 95       	ret

00001754 <tb_init>:
    1754:	84 e0       	ldi	r24, 0x04	; 4
    1756:	80 93 5e 20 	sts	0x205E, r24
    175a:	84 e1       	ldi	r24, 0x14	; 20
    175c:	80 93 61 20 	sts	0x2061, r24
    1760:	95 e0       	ldi	r25, 0x05	; 5
    1762:	90 93 62 20 	sts	0x2062, r25
    1766:	10 92 60 20 	sts	0x2060, r1
    176a:	80 93 5f 20 	sts	0x205F, r24
    176e:	81 e0       	ldi	r24, 0x01	; 1
    1770:	80 93 5d 20 	sts	0x205D, r24
    1774:	83 e0       	ldi	r24, 0x03	; 3
    1776:	80 93 63 20 	sts	0x2063, r24
    177a:	10 92 77 20 	sts	0x2077, r1
    177e:	10 92 78 20 	sts	0x2078, r1
    1782:	80 e4       	ldi	r24, 0x40	; 64
    1784:	80 93 9b 20 	sts	0x209B, r24
    1788:	10 92 9c 20 	sts	0x209C, r1
    178c:	10 92 9d 20 	sts	0x209D, r1
    1790:	10 92 9e 20 	sts	0x209E, r1
    1794:	80 e8       	ldi	r24, 0x80	; 128
    1796:	80 93 9f 20 	sts	0x209F, r24
    179a:	10 92 a0 20 	sts	0x20A0, r1
    179e:	10 92 a1 20 	sts	0x20A1, r1
    17a2:	10 92 a2 20 	sts	0x20A2, r1
    17a6:	23 e0       	ldi	r18, 0x03	; 3
    17a8:	4a e0       	ldi	r20, 0x0A	; 10
    17aa:	60 e0       	ldi	r22, 0x00	; 0
    17ac:	80 e0       	ldi	r24, 0x00	; 0
    17ae:	0e 94 6c 03 	call	0x6d8	; 0x6d8 <qt_enable_key>
    17b2:	60 e0       	ldi	r22, 0x00	; 0
    17b4:	70 e0       	ldi	r23, 0x00	; 0
    17b6:	87 e8       	ldi	r24, 0x87	; 135
    17b8:	92 e0       	ldi	r25, 0x02	; 2
    17ba:	9f c8       	rjmp	.-3778   	; 0x8fa <qt_init_sensing_with_burst>
    17bc:	08 95       	ret

000017be <adc_set_callback>:
    17be:	4f b7       	in	r20, 0x3f	; 63
    17c0:	f8 94       	cli
    17c2:	28 2f       	mov	r18, r24
    17c4:	39 2f       	mov	r19, r25
    17c6:	21 15       	cp	r18, r1
    17c8:	82 e0       	ldi	r24, 0x02	; 2
    17ca:	38 07       	cpc	r19, r24
    17cc:	29 f4       	brne	.+10     	; 0x17d8 <adc_set_callback+0x1a>
    17ce:	60 93 ed 23 	sts	0x23ED, r22
    17d2:	70 93 ee 23 	sts	0x23EE, r23
    17d6:	07 c0       	rjmp	.+14     	; 0x17e6 <adc_set_callback+0x28>
    17d8:	20 34       	cpi	r18, 0x40	; 64
    17da:	32 40       	sbci	r19, 0x02	; 2
    17dc:	21 f4       	brne	.+8      	; 0x17e6 <adc_set_callback+0x28>
    17de:	60 93 eb 23 	sts	0x23EB, r22
    17e2:	70 93 ec 23 	sts	0x23EC, r23
    17e6:	4f bf       	out	0x3f, r20	; 63
    17e8:	08 95       	ret

000017ea <adc_enable_clock>:
    17ea:	81 15       	cp	r24, r1
    17ec:	22 e0       	ldi	r18, 0x02	; 2
    17ee:	92 07       	cpc	r25, r18
    17f0:	69 f4       	brne	.+26     	; 0x180c <adc_enable_clock+0x22>
    17f2:	80 91 ac 22 	lds	r24, 0x22AC
    17f6:	91 e0       	ldi	r25, 0x01	; 1
    17f8:	98 0f       	add	r25, r24
    17fa:	90 93 ac 22 	sts	0x22AC, r25
    17fe:	81 11       	cpse	r24, r1
    1800:	14 c0       	rjmp	.+40     	; 0x182a <adc_enable_clock+0x40>
    1802:	62 e0       	ldi	r22, 0x02	; 2
    1804:	81 e0       	ldi	r24, 0x01	; 1
    1806:	0c 94 d8 18 	jmp	0x31b0	; 0x31b0 <sysclk_enable_module>
    180a:	08 95       	ret
    180c:	80 34       	cpi	r24, 0x40	; 64
    180e:	92 40       	sbci	r25, 0x02	; 2
    1810:	61 f4       	brne	.+24     	; 0x182a <adc_enable_clock+0x40>
    1812:	80 91 ab 22 	lds	r24, 0x22AB
    1816:	91 e0       	ldi	r25, 0x01	; 1
    1818:	98 0f       	add	r25, r24
    181a:	90 93 ab 22 	sts	0x22AB, r25
    181e:	81 11       	cpse	r24, r1
    1820:	04 c0       	rjmp	.+8      	; 0x182a <adc_enable_clock+0x40>
    1822:	62 e0       	ldi	r22, 0x02	; 2
    1824:	82 e0       	ldi	r24, 0x02	; 2
    1826:	0c 94 d8 18 	jmp	0x31b0	; 0x31b0 <sysclk_enable_module>
    182a:	08 95       	ret

0000182c <adc_disable_clock>:
    182c:	81 15       	cp	r24, r1
    182e:	22 e0       	ldi	r18, 0x02	; 2
    1830:	92 07       	cpc	r25, r18
    1832:	61 f4       	brne	.+24     	; 0x184c <adc_disable_clock+0x20>
    1834:	80 91 ac 22 	lds	r24, 0x22AC
    1838:	81 50       	subi	r24, 0x01	; 1
    183a:	80 93 ac 22 	sts	0x22AC, r24
    183e:	81 11       	cpse	r24, r1
    1840:	13 c0       	rjmp	.+38     	; 0x1868 <adc_disable_clock+0x3c>
    1842:	62 e0       	ldi	r22, 0x02	; 2
    1844:	81 e0       	ldi	r24, 0x01	; 1
    1846:	0c 94 e4 18 	jmp	0x31c8	; 0x31c8 <sysclk_disable_module>
    184a:	08 95       	ret
    184c:	80 34       	cpi	r24, 0x40	; 64
    184e:	92 40       	sbci	r25, 0x02	; 2
    1850:	59 f4       	brne	.+22     	; 0x1868 <adc_disable_clock+0x3c>
    1852:	80 91 ab 22 	lds	r24, 0x22AB
    1856:	81 50       	subi	r24, 0x01	; 1
    1858:	80 93 ab 22 	sts	0x22AB, r24
    185c:	81 11       	cpse	r24, r1
    185e:	04 c0       	rjmp	.+8      	; 0x1868 <adc_disable_clock+0x3c>
    1860:	62 e0       	ldi	r22, 0x02	; 2
    1862:	82 e0       	ldi	r24, 0x02	; 2
    1864:	0c 94 e4 18 	jmp	0x31c8	; 0x31c8 <sysclk_disable_module>
    1868:	08 95       	ret

0000186a <adc_enable>:
    186a:	1f 93       	push	r17
    186c:	cf 93       	push	r28
    186e:	df 93       	push	r29
    1870:	ec 01       	movw	r28, r24
    1872:	1f b7       	in	r17, 0x3f	; 63
    1874:	f8 94       	cli
    1876:	b9 df       	rcall	.-142    	; 0x17ea <adc_enable_clock>
    1878:	88 81       	ld	r24, Y
    187a:	81 60       	ori	r24, 0x01	; 1
    187c:	88 83       	st	Y, r24
    187e:	1f bf       	out	0x3f, r17	; 63
    1880:	8f b7       	in	r24, 0x3f	; 63
    1882:	f8 94       	cli
    1884:	e6 ee       	ldi	r30, 0xE6	; 230
    1886:	f3 e2       	ldi	r31, 0x23	; 35
    1888:	90 81       	ld	r25, Z
    188a:	9f 5f       	subi	r25, 0xFF	; 255
    188c:	90 83       	st	Z, r25
    188e:	8f bf       	out	0x3f, r24	; 63
    1890:	df 91       	pop	r29
    1892:	cf 91       	pop	r28
    1894:	1f 91       	pop	r17
    1896:	08 95       	ret

00001898 <__vector_71>:
    1898:	1f 92       	push	r1
    189a:	0f 92       	push	r0
    189c:	0f b6       	in	r0, 0x3f	; 63
    189e:	0f 92       	push	r0
    18a0:	11 24       	eor	r1, r1
    18a2:	0b b6       	in	r0, 0x3b	; 59
    18a4:	0f 92       	push	r0
    18a6:	2f 93       	push	r18
    18a8:	3f 93       	push	r19
    18aa:	4f 93       	push	r20
    18ac:	5f 93       	push	r21
    18ae:	6f 93       	push	r22
    18b0:	7f 93       	push	r23
    18b2:	8f 93       	push	r24
    18b4:	9f 93       	push	r25
    18b6:	af 93       	push	r26
    18b8:	bf 93       	push	r27
    18ba:	ef 93       	push	r30
    18bc:	ff 93       	push	r31
    18be:	e0 e0       	ldi	r30, 0x00	; 0
    18c0:	f2 e0       	ldi	r31, 0x02	; 2
    18c2:	44 a1       	ldd	r20, Z+36	; 0x24
    18c4:	55 a1       	ldd	r21, Z+37	; 0x25
    18c6:	e0 91 ed 23 	lds	r30, 0x23ED
    18ca:	f0 91 ee 23 	lds	r31, 0x23EE
    18ce:	61 e0       	ldi	r22, 0x01	; 1
    18d0:	80 e0       	ldi	r24, 0x00	; 0
    18d2:	92 e0       	ldi	r25, 0x02	; 2
    18d4:	19 95       	eicall
    18d6:	ff 91       	pop	r31
    18d8:	ef 91       	pop	r30
    18da:	bf 91       	pop	r27
    18dc:	af 91       	pop	r26
    18de:	9f 91       	pop	r25
    18e0:	8f 91       	pop	r24
    18e2:	7f 91       	pop	r23
    18e4:	6f 91       	pop	r22
    18e6:	5f 91       	pop	r21
    18e8:	4f 91       	pop	r20
    18ea:	3f 91       	pop	r19
    18ec:	2f 91       	pop	r18
    18ee:	0f 90       	pop	r0
    18f0:	0b be       	out	0x3b, r0	; 59
    18f2:	0f 90       	pop	r0
    18f4:	0f be       	out	0x3f, r0	; 63
    18f6:	0f 90       	pop	r0
    18f8:	1f 90       	pop	r1
    18fa:	18 95       	reti

000018fc <__vector_72>:
    18fc:	1f 92       	push	r1
    18fe:	0f 92       	push	r0
    1900:	0f b6       	in	r0, 0x3f	; 63
    1902:	0f 92       	push	r0
    1904:	11 24       	eor	r1, r1
    1906:	0b b6       	in	r0, 0x3b	; 59
    1908:	0f 92       	push	r0
    190a:	2f 93       	push	r18
    190c:	3f 93       	push	r19
    190e:	4f 93       	push	r20
    1910:	5f 93       	push	r21
    1912:	6f 93       	push	r22
    1914:	7f 93       	push	r23
    1916:	8f 93       	push	r24
    1918:	9f 93       	push	r25
    191a:	af 93       	push	r26
    191c:	bf 93       	push	r27
    191e:	ef 93       	push	r30
    1920:	ff 93       	push	r31
    1922:	e8 e2       	ldi	r30, 0x28	; 40
    1924:	f2 e0       	ldi	r31, 0x02	; 2
    1926:	44 81       	ldd	r20, Z+4	; 0x04
    1928:	55 81       	ldd	r21, Z+5	; 0x05
    192a:	e0 91 ed 23 	lds	r30, 0x23ED
    192e:	f0 91 ee 23 	lds	r31, 0x23EE
    1932:	62 e0       	ldi	r22, 0x02	; 2
    1934:	80 e0       	ldi	r24, 0x00	; 0
    1936:	92 e0       	ldi	r25, 0x02	; 2
    1938:	19 95       	eicall
    193a:	ff 91       	pop	r31
    193c:	ef 91       	pop	r30
    193e:	bf 91       	pop	r27
    1940:	af 91       	pop	r26
    1942:	9f 91       	pop	r25
    1944:	8f 91       	pop	r24
    1946:	7f 91       	pop	r23
    1948:	6f 91       	pop	r22
    194a:	5f 91       	pop	r21
    194c:	4f 91       	pop	r20
    194e:	3f 91       	pop	r19
    1950:	2f 91       	pop	r18
    1952:	0f 90       	pop	r0
    1954:	0b be       	out	0x3b, r0	; 59
    1956:	0f 90       	pop	r0
    1958:	0f be       	out	0x3f, r0	; 63
    195a:	0f 90       	pop	r0
    195c:	1f 90       	pop	r1
    195e:	18 95       	reti

00001960 <__vector_73>:
    1960:	1f 92       	push	r1
    1962:	0f 92       	push	r0
    1964:	0f b6       	in	r0, 0x3f	; 63
    1966:	0f 92       	push	r0
    1968:	11 24       	eor	r1, r1
    196a:	0b b6       	in	r0, 0x3b	; 59
    196c:	0f 92       	push	r0
    196e:	2f 93       	push	r18
    1970:	3f 93       	push	r19
    1972:	4f 93       	push	r20
    1974:	5f 93       	push	r21
    1976:	6f 93       	push	r22
    1978:	7f 93       	push	r23
    197a:	8f 93       	push	r24
    197c:	9f 93       	push	r25
    197e:	af 93       	push	r26
    1980:	bf 93       	push	r27
    1982:	ef 93       	push	r30
    1984:	ff 93       	push	r31
    1986:	e0 e3       	ldi	r30, 0x30	; 48
    1988:	f2 e0       	ldi	r31, 0x02	; 2
    198a:	44 81       	ldd	r20, Z+4	; 0x04
    198c:	55 81       	ldd	r21, Z+5	; 0x05
    198e:	e0 91 ed 23 	lds	r30, 0x23ED
    1992:	f0 91 ee 23 	lds	r31, 0x23EE
    1996:	64 e0       	ldi	r22, 0x04	; 4
    1998:	80 e0       	ldi	r24, 0x00	; 0
    199a:	92 e0       	ldi	r25, 0x02	; 2
    199c:	19 95       	eicall
    199e:	ff 91       	pop	r31
    19a0:	ef 91       	pop	r30
    19a2:	bf 91       	pop	r27
    19a4:	af 91       	pop	r26
    19a6:	9f 91       	pop	r25
    19a8:	8f 91       	pop	r24
    19aa:	7f 91       	pop	r23
    19ac:	6f 91       	pop	r22
    19ae:	5f 91       	pop	r21
    19b0:	4f 91       	pop	r20
    19b2:	3f 91       	pop	r19
    19b4:	2f 91       	pop	r18
    19b6:	0f 90       	pop	r0
    19b8:	0b be       	out	0x3b, r0	; 59
    19ba:	0f 90       	pop	r0
    19bc:	0f be       	out	0x3f, r0	; 63
    19be:	0f 90       	pop	r0
    19c0:	1f 90       	pop	r1
    19c2:	18 95       	reti

000019c4 <__vector_74>:
    19c4:	1f 92       	push	r1
    19c6:	0f 92       	push	r0
    19c8:	0f b6       	in	r0, 0x3f	; 63
    19ca:	0f 92       	push	r0
    19cc:	11 24       	eor	r1, r1
    19ce:	0b b6       	in	r0, 0x3b	; 59
    19d0:	0f 92       	push	r0
    19d2:	2f 93       	push	r18
    19d4:	3f 93       	push	r19
    19d6:	4f 93       	push	r20
    19d8:	5f 93       	push	r21
    19da:	6f 93       	push	r22
    19dc:	7f 93       	push	r23
    19de:	8f 93       	push	r24
    19e0:	9f 93       	push	r25
    19e2:	af 93       	push	r26
    19e4:	bf 93       	push	r27
    19e6:	ef 93       	push	r30
    19e8:	ff 93       	push	r31
    19ea:	e8 e3       	ldi	r30, 0x38	; 56
    19ec:	f2 e0       	ldi	r31, 0x02	; 2
    19ee:	44 81       	ldd	r20, Z+4	; 0x04
    19f0:	55 81       	ldd	r21, Z+5	; 0x05
    19f2:	e0 91 ed 23 	lds	r30, 0x23ED
    19f6:	f0 91 ee 23 	lds	r31, 0x23EE
    19fa:	68 e0       	ldi	r22, 0x08	; 8
    19fc:	80 e0       	ldi	r24, 0x00	; 0
    19fe:	92 e0       	ldi	r25, 0x02	; 2
    1a00:	19 95       	eicall
    1a02:	ff 91       	pop	r31
    1a04:	ef 91       	pop	r30
    1a06:	bf 91       	pop	r27
    1a08:	af 91       	pop	r26
    1a0a:	9f 91       	pop	r25
    1a0c:	8f 91       	pop	r24
    1a0e:	7f 91       	pop	r23
    1a10:	6f 91       	pop	r22
    1a12:	5f 91       	pop	r21
    1a14:	4f 91       	pop	r20
    1a16:	3f 91       	pop	r19
    1a18:	2f 91       	pop	r18
    1a1a:	0f 90       	pop	r0
    1a1c:	0b be       	out	0x3b, r0	; 59
    1a1e:	0f 90       	pop	r0
    1a20:	0f be       	out	0x3f, r0	; 63
    1a22:	0f 90       	pop	r0
    1a24:	1f 90       	pop	r1
    1a26:	18 95       	reti

00001a28 <__vector_39>:
    1a28:	1f 92       	push	r1
    1a2a:	0f 92       	push	r0
    1a2c:	0f b6       	in	r0, 0x3f	; 63
    1a2e:	0f 92       	push	r0
    1a30:	11 24       	eor	r1, r1
    1a32:	0b b6       	in	r0, 0x3b	; 59
    1a34:	0f 92       	push	r0
    1a36:	2f 93       	push	r18
    1a38:	3f 93       	push	r19
    1a3a:	4f 93       	push	r20
    1a3c:	5f 93       	push	r21
    1a3e:	6f 93       	push	r22
    1a40:	7f 93       	push	r23
    1a42:	8f 93       	push	r24
    1a44:	9f 93       	push	r25
    1a46:	af 93       	push	r26
    1a48:	bf 93       	push	r27
    1a4a:	ef 93       	push	r30
    1a4c:	ff 93       	push	r31
    1a4e:	e0 e4       	ldi	r30, 0x40	; 64
    1a50:	f2 e0       	ldi	r31, 0x02	; 2
    1a52:	44 a1       	ldd	r20, Z+36	; 0x24
    1a54:	55 a1       	ldd	r21, Z+37	; 0x25
    1a56:	e0 91 eb 23 	lds	r30, 0x23EB
    1a5a:	f0 91 ec 23 	lds	r31, 0x23EC
    1a5e:	61 e0       	ldi	r22, 0x01	; 1
    1a60:	80 e4       	ldi	r24, 0x40	; 64
    1a62:	92 e0       	ldi	r25, 0x02	; 2
    1a64:	19 95       	eicall
    1a66:	ff 91       	pop	r31
    1a68:	ef 91       	pop	r30
    1a6a:	bf 91       	pop	r27
    1a6c:	af 91       	pop	r26
    1a6e:	9f 91       	pop	r25
    1a70:	8f 91       	pop	r24
    1a72:	7f 91       	pop	r23
    1a74:	6f 91       	pop	r22
    1a76:	5f 91       	pop	r21
    1a78:	4f 91       	pop	r20
    1a7a:	3f 91       	pop	r19
    1a7c:	2f 91       	pop	r18
    1a7e:	0f 90       	pop	r0
    1a80:	0b be       	out	0x3b, r0	; 59
    1a82:	0f 90       	pop	r0
    1a84:	0f be       	out	0x3f, r0	; 63
    1a86:	0f 90       	pop	r0
    1a88:	1f 90       	pop	r1
    1a8a:	18 95       	reti

00001a8c <__vector_40>:
    1a8c:	1f 92       	push	r1
    1a8e:	0f 92       	push	r0
    1a90:	0f b6       	in	r0, 0x3f	; 63
    1a92:	0f 92       	push	r0
    1a94:	11 24       	eor	r1, r1
    1a96:	0b b6       	in	r0, 0x3b	; 59
    1a98:	0f 92       	push	r0
    1a9a:	2f 93       	push	r18
    1a9c:	3f 93       	push	r19
    1a9e:	4f 93       	push	r20
    1aa0:	5f 93       	push	r21
    1aa2:	6f 93       	push	r22
    1aa4:	7f 93       	push	r23
    1aa6:	8f 93       	push	r24
    1aa8:	9f 93       	push	r25
    1aaa:	af 93       	push	r26
    1aac:	bf 93       	push	r27
    1aae:	ef 93       	push	r30
    1ab0:	ff 93       	push	r31
    1ab2:	e8 e6       	ldi	r30, 0x68	; 104
    1ab4:	f2 e0       	ldi	r31, 0x02	; 2
    1ab6:	44 81       	ldd	r20, Z+4	; 0x04
    1ab8:	55 81       	ldd	r21, Z+5	; 0x05
    1aba:	e0 91 eb 23 	lds	r30, 0x23EB
    1abe:	f0 91 ec 23 	lds	r31, 0x23EC
    1ac2:	62 e0       	ldi	r22, 0x02	; 2
    1ac4:	80 e4       	ldi	r24, 0x40	; 64
    1ac6:	92 e0       	ldi	r25, 0x02	; 2
    1ac8:	19 95       	eicall
    1aca:	ff 91       	pop	r31
    1acc:	ef 91       	pop	r30
    1ace:	bf 91       	pop	r27
    1ad0:	af 91       	pop	r26
    1ad2:	9f 91       	pop	r25
    1ad4:	8f 91       	pop	r24
    1ad6:	7f 91       	pop	r23
    1ad8:	6f 91       	pop	r22
    1ada:	5f 91       	pop	r21
    1adc:	4f 91       	pop	r20
    1ade:	3f 91       	pop	r19
    1ae0:	2f 91       	pop	r18
    1ae2:	0f 90       	pop	r0
    1ae4:	0b be       	out	0x3b, r0	; 59
    1ae6:	0f 90       	pop	r0
    1ae8:	0f be       	out	0x3f, r0	; 63
    1aea:	0f 90       	pop	r0
    1aec:	1f 90       	pop	r1
    1aee:	18 95       	reti

00001af0 <__vector_41>:
    1af0:	1f 92       	push	r1
    1af2:	0f 92       	push	r0
    1af4:	0f b6       	in	r0, 0x3f	; 63
    1af6:	0f 92       	push	r0
    1af8:	11 24       	eor	r1, r1
    1afa:	0b b6       	in	r0, 0x3b	; 59
    1afc:	0f 92       	push	r0
    1afe:	2f 93       	push	r18
    1b00:	3f 93       	push	r19
    1b02:	4f 93       	push	r20
    1b04:	5f 93       	push	r21
    1b06:	6f 93       	push	r22
    1b08:	7f 93       	push	r23
    1b0a:	8f 93       	push	r24
    1b0c:	9f 93       	push	r25
    1b0e:	af 93       	push	r26
    1b10:	bf 93       	push	r27
    1b12:	ef 93       	push	r30
    1b14:	ff 93       	push	r31
    1b16:	e0 e7       	ldi	r30, 0x70	; 112
    1b18:	f2 e0       	ldi	r31, 0x02	; 2
    1b1a:	44 81       	ldd	r20, Z+4	; 0x04
    1b1c:	55 81       	ldd	r21, Z+5	; 0x05
    1b1e:	e0 91 eb 23 	lds	r30, 0x23EB
    1b22:	f0 91 ec 23 	lds	r31, 0x23EC
    1b26:	64 e0       	ldi	r22, 0x04	; 4
    1b28:	80 e4       	ldi	r24, 0x40	; 64
    1b2a:	92 e0       	ldi	r25, 0x02	; 2
    1b2c:	19 95       	eicall
    1b2e:	ff 91       	pop	r31
    1b30:	ef 91       	pop	r30
    1b32:	bf 91       	pop	r27
    1b34:	af 91       	pop	r26
    1b36:	9f 91       	pop	r25
    1b38:	8f 91       	pop	r24
    1b3a:	7f 91       	pop	r23
    1b3c:	6f 91       	pop	r22
    1b3e:	5f 91       	pop	r21
    1b40:	4f 91       	pop	r20
    1b42:	3f 91       	pop	r19
    1b44:	2f 91       	pop	r18
    1b46:	0f 90       	pop	r0
    1b48:	0b be       	out	0x3b, r0	; 59
    1b4a:	0f 90       	pop	r0
    1b4c:	0f be       	out	0x3f, r0	; 63
    1b4e:	0f 90       	pop	r0
    1b50:	1f 90       	pop	r1
    1b52:	18 95       	reti

00001b54 <__vector_42>:
    1b54:	1f 92       	push	r1
    1b56:	0f 92       	push	r0
    1b58:	0f b6       	in	r0, 0x3f	; 63
    1b5a:	0f 92       	push	r0
    1b5c:	11 24       	eor	r1, r1
    1b5e:	0b b6       	in	r0, 0x3b	; 59
    1b60:	0f 92       	push	r0
    1b62:	2f 93       	push	r18
    1b64:	3f 93       	push	r19
    1b66:	4f 93       	push	r20
    1b68:	5f 93       	push	r21
    1b6a:	6f 93       	push	r22
    1b6c:	7f 93       	push	r23
    1b6e:	8f 93       	push	r24
    1b70:	9f 93       	push	r25
    1b72:	af 93       	push	r26
    1b74:	bf 93       	push	r27
    1b76:	ef 93       	push	r30
    1b78:	ff 93       	push	r31
    1b7a:	e8 e7       	ldi	r30, 0x78	; 120
    1b7c:	f2 e0       	ldi	r31, 0x02	; 2
    1b7e:	44 81       	ldd	r20, Z+4	; 0x04
    1b80:	55 81       	ldd	r21, Z+5	; 0x05
    1b82:	e0 91 eb 23 	lds	r30, 0x23EB
    1b86:	f0 91 ec 23 	lds	r31, 0x23EC
    1b8a:	68 e0       	ldi	r22, 0x08	; 8
    1b8c:	80 e4       	ldi	r24, 0x40	; 64
    1b8e:	92 e0       	ldi	r25, 0x02	; 2
    1b90:	19 95       	eicall
    1b92:	ff 91       	pop	r31
    1b94:	ef 91       	pop	r30
    1b96:	bf 91       	pop	r27
    1b98:	af 91       	pop	r26
    1b9a:	9f 91       	pop	r25
    1b9c:	8f 91       	pop	r24
    1b9e:	7f 91       	pop	r23
    1ba0:	6f 91       	pop	r22
    1ba2:	5f 91       	pop	r21
    1ba4:	4f 91       	pop	r20
    1ba6:	3f 91       	pop	r19
    1ba8:	2f 91       	pop	r18
    1baa:	0f 90       	pop	r0
    1bac:	0b be       	out	0x3b, r0	; 59
    1bae:	0f 90       	pop	r0
    1bb0:	0f be       	out	0x3f, r0	; 63
    1bb2:	0f 90       	pop	r0
    1bb4:	1f 90       	pop	r1
    1bb6:	18 95       	reti

00001bb8 <adc_write_configuration>:
    1bb8:	df 92       	push	r13
    1bba:	ef 92       	push	r14
    1bbc:	ff 92       	push	r15
    1bbe:	0f 93       	push	r16
    1bc0:	1f 93       	push	r17
    1bc2:	cf 93       	push	r28
    1bc4:	df 93       	push	r29
    1bc6:	ec 01       	movw	r28, r24
    1bc8:	8b 01       	movw	r16, r22
    1bca:	c1 15       	cp	r28, r1
    1bcc:	22 e0       	ldi	r18, 0x02	; 2
    1bce:	d2 07       	cpc	r29, r18
    1bd0:	81 f4       	brne	.+32     	; 0x1bf2 <adc_write_configuration+0x3a>
    1bd2:	61 e2       	ldi	r22, 0x21	; 33
    1bd4:	70 e0       	ldi	r23, 0x00	; 0
    1bd6:	82 e0       	ldi	r24, 0x02	; 2
    1bd8:	0e 94 49 19 	call	0x3292	; 0x3292 <nvm_read_byte>
    1bdc:	e8 2e       	mov	r14, r24
    1bde:	f1 2c       	mov	r15, r1
    1be0:	60 e2       	ldi	r22, 0x20	; 32
    1be2:	70 e0       	ldi	r23, 0x00	; 0
    1be4:	82 e0       	ldi	r24, 0x02	; 2
    1be6:	0e 94 49 19 	call	0x3292	; 0x3292 <nvm_read_byte>
    1bea:	fe 2c       	mov	r15, r14
    1bec:	ee 24       	eor	r14, r14
    1bee:	e8 2a       	or	r14, r24
    1bf0:	12 c0       	rjmp	.+36     	; 0x1c16 <adc_write_configuration+0x5e>
    1bf2:	80 34       	cpi	r24, 0x40	; 64
    1bf4:	92 40       	sbci	r25, 0x02	; 2
    1bf6:	69 f5       	brne	.+90     	; 0x1c52 <adc_write_configuration+0x9a>
    1bf8:	65 e2       	ldi	r22, 0x25	; 37
    1bfa:	70 e0       	ldi	r23, 0x00	; 0
    1bfc:	82 e0       	ldi	r24, 0x02	; 2
    1bfe:	0e 94 49 19 	call	0x3292	; 0x3292 <nvm_read_byte>
    1c02:	e8 2e       	mov	r14, r24
    1c04:	f1 2c       	mov	r15, r1
    1c06:	64 e2       	ldi	r22, 0x24	; 36
    1c08:	70 e0       	ldi	r23, 0x00	; 0
    1c0a:	82 e0       	ldi	r24, 0x02	; 2
    1c0c:	0e 94 49 19 	call	0x3292	; 0x3292 <nvm_read_byte>
    1c10:	fe 2c       	mov	r15, r14
    1c12:	ee 24       	eor	r14, r14
    1c14:	e8 2a       	or	r14, r24
    1c16:	df b6       	in	r13, 0x3f	; 63
    1c18:	f8 94       	cli
    1c1a:	ce 01       	movw	r24, r28
    1c1c:	e6 dd       	rcall	.-1076   	; 0x17ea <adc_enable_clock>
    1c1e:	28 81       	ld	r18, Y
    1c20:	82 e0       	ldi	r24, 0x02	; 2
    1c22:	88 83       	st	Y, r24
    1c24:	ec 86       	std	Y+12, r14	; 0x0c
    1c26:	fd 86       	std	Y+13, r15	; 0x0d
    1c28:	f8 01       	movw	r30, r16
    1c2a:	85 81       	ldd	r24, Z+5	; 0x05
    1c2c:	96 81       	ldd	r25, Z+6	; 0x06
    1c2e:	88 8f       	std	Y+24, r24	; 0x18
    1c30:	99 8f       	std	Y+25, r25	; 0x19
    1c32:	82 81       	ldd	r24, Z+2	; 0x02
    1c34:	8a 83       	std	Y+2, r24	; 0x02
    1c36:	84 81       	ldd	r24, Z+4	; 0x04
    1c38:	8c 83       	std	Y+4, r24	; 0x04
    1c3a:	83 81       	ldd	r24, Z+3	; 0x03
    1c3c:	8b 83       	std	Y+3, r24	; 0x03
    1c3e:	81 81       	ldd	r24, Z+1	; 0x01
    1c40:	89 83       	std	Y+1, r24	; 0x01
    1c42:	82 2f       	mov	r24, r18
    1c44:	81 70       	andi	r24, 0x01	; 1
    1c46:	90 81       	ld	r25, Z
    1c48:	89 2b       	or	r24, r25
    1c4a:	88 83       	st	Y, r24
    1c4c:	ce 01       	movw	r24, r28
    1c4e:	ee dd       	rcall	.-1060   	; 0x182c <adc_disable_clock>
    1c50:	df be       	out	0x3f, r13	; 63
    1c52:	df 91       	pop	r29
    1c54:	cf 91       	pop	r28
    1c56:	1f 91       	pop	r17
    1c58:	0f 91       	pop	r16
    1c5a:	ff 90       	pop	r15
    1c5c:	ef 90       	pop	r14
    1c5e:	df 90       	pop	r13
    1c60:	08 95       	ret

00001c62 <adc_read_configuration>:
    1c62:	ff 92       	push	r15
    1c64:	0f 93       	push	r16
    1c66:	1f 93       	push	r17
    1c68:	cf 93       	push	r28
    1c6a:	df 93       	push	r29
    1c6c:	ec 01       	movw	r28, r24
    1c6e:	8b 01       	movw	r16, r22
    1c70:	ff b6       	in	r15, 0x3f	; 63
    1c72:	f8 94       	cli
    1c74:	ba dd       	rcall	.-1164   	; 0x17ea <adc_enable_clock>
    1c76:	88 81       	ld	r24, Y
    1c78:	80 7c       	andi	r24, 0xC0	; 192
    1c7a:	f8 01       	movw	r30, r16
    1c7c:	80 83       	st	Z, r24
    1c7e:	88 8d       	ldd	r24, Y+24	; 0x18
    1c80:	99 8d       	ldd	r25, Y+25	; 0x19
    1c82:	85 83       	std	Z+5, r24	; 0x05
    1c84:	96 83       	std	Z+6, r25	; 0x06
    1c86:	8a 81       	ldd	r24, Y+2	; 0x02
    1c88:	82 83       	std	Z+2, r24	; 0x02
    1c8a:	8c 81       	ldd	r24, Y+4	; 0x04
    1c8c:	84 83       	std	Z+4, r24	; 0x04
    1c8e:	8b 81       	ldd	r24, Y+3	; 0x03
    1c90:	83 83       	std	Z+3, r24	; 0x03
    1c92:	89 81       	ldd	r24, Y+1	; 0x01
    1c94:	81 83       	std	Z+1, r24	; 0x01
    1c96:	ce 01       	movw	r24, r28
    1c98:	c9 dd       	rcall	.-1134   	; 0x182c <adc_disable_clock>
    1c9a:	ff be       	out	0x3f, r15	; 63
    1c9c:	df 91       	pop	r29
    1c9e:	cf 91       	pop	r28
    1ca0:	1f 91       	pop	r17
    1ca2:	0f 91       	pop	r16
    1ca4:	ff 90       	pop	r15
    1ca6:	08 95       	ret

00001ca8 <adcch_write_configuration>:
    1ca8:	cf 92       	push	r12
    1caa:	df 92       	push	r13
    1cac:	ef 92       	push	r14
    1cae:	ff 92       	push	r15
    1cb0:	0f 93       	push	r16
    1cb2:	1f 93       	push	r17
    1cb4:	cf 93       	push	r28
    1cb6:	df 93       	push	r29
    1cb8:	7c 01       	movw	r14, r24
    1cba:	d6 2e       	mov	r13, r22
    1cbc:	8a 01       	movw	r16, r20
    1cbe:	86 2f       	mov	r24, r22
    1cc0:	83 70       	andi	r24, 0x03	; 3
    1cc2:	29 f4       	brne	.+10     	; 0x1cce <adcch_write_configuration+0x26>
    1cc4:	96 2f       	mov	r25, r22
    1cc6:	96 95       	lsr	r25
    1cc8:	96 95       	lsr	r25
    1cca:	82 e0       	ldi	r24, 0x02	; 2
    1ccc:	02 c0       	rjmp	.+4      	; 0x1cd2 <adcch_write_configuration+0x2a>
    1cce:	96 2f       	mov	r25, r22
    1cd0:	80 e0       	ldi	r24, 0x00	; 0
    1cd2:	90 ff       	sbrs	r25, 0
    1cd4:	8f 5f       	subi	r24, 0xFF	; 255
    1cd6:	e7 01       	movw	r28, r14
    1cd8:	a0 96       	adiw	r28, 0x20	; 32
    1cda:	98 e0       	ldi	r25, 0x08	; 8
    1cdc:	89 9f       	mul	r24, r25
    1cde:	c0 0d       	add	r28, r0
    1ce0:	d1 1d       	adc	r29, r1
    1ce2:	11 24       	eor	r1, r1
    1ce4:	cf b6       	in	r12, 0x3f	; 63
    1ce6:	f8 94       	cli
    1ce8:	c7 01       	movw	r24, r14
    1cea:	7f dd       	rcall	.-1282   	; 0x17ea <adc_enable_clock>
    1cec:	f8 01       	movw	r30, r16
    1cee:	80 81       	ld	r24, Z
    1cf0:	88 83       	st	Y, r24
    1cf2:	82 81       	ldd	r24, Z+2	; 0x02
    1cf4:	8a 83       	std	Y+2, r24	; 0x02
    1cf6:	81 81       	ldd	r24, Z+1	; 0x01
    1cf8:	89 83       	std	Y+1, r24	; 0x01
    1cfa:	d0 fe       	sbrs	r13, 0
    1cfc:	02 c0       	rjmp	.+4      	; 0x1d02 <adcch_write_configuration+0x5a>
    1cfe:	83 81       	ldd	r24, Z+3	; 0x03
    1d00:	8e 83       	std	Y+6, r24	; 0x06
    1d02:	c7 01       	movw	r24, r14
    1d04:	93 dd       	rcall	.-1242   	; 0x182c <adc_disable_clock>
    1d06:	cf be       	out	0x3f, r12	; 63
    1d08:	df 91       	pop	r29
    1d0a:	cf 91       	pop	r28
    1d0c:	1f 91       	pop	r17
    1d0e:	0f 91       	pop	r16
    1d10:	ff 90       	pop	r15
    1d12:	ef 90       	pop	r14
    1d14:	df 90       	pop	r13
    1d16:	cf 90       	pop	r12
    1d18:	08 95       	ret

00001d1a <adcch_read_configuration>:
    1d1a:	cf 92       	push	r12
    1d1c:	df 92       	push	r13
    1d1e:	ef 92       	push	r14
    1d20:	ff 92       	push	r15
    1d22:	0f 93       	push	r16
    1d24:	1f 93       	push	r17
    1d26:	cf 93       	push	r28
    1d28:	df 93       	push	r29
    1d2a:	7c 01       	movw	r14, r24
    1d2c:	d6 2e       	mov	r13, r22
    1d2e:	ea 01       	movw	r28, r20
    1d30:	86 2f       	mov	r24, r22
    1d32:	83 70       	andi	r24, 0x03	; 3
    1d34:	29 f4       	brne	.+10     	; 0x1d40 <adcch_read_configuration+0x26>
    1d36:	96 2f       	mov	r25, r22
    1d38:	96 95       	lsr	r25
    1d3a:	96 95       	lsr	r25
    1d3c:	82 e0       	ldi	r24, 0x02	; 2
    1d3e:	02 c0       	rjmp	.+4      	; 0x1d44 <adcch_read_configuration+0x2a>
    1d40:	96 2f       	mov	r25, r22
    1d42:	80 e0       	ldi	r24, 0x00	; 0
    1d44:	90 ff       	sbrs	r25, 0
    1d46:	8f 5f       	subi	r24, 0xFF	; 255
    1d48:	87 01       	movw	r16, r14
    1d4a:	00 5e       	subi	r16, 0xE0	; 224
    1d4c:	1f 4f       	sbci	r17, 0xFF	; 255
    1d4e:	98 e0       	ldi	r25, 0x08	; 8
    1d50:	89 9f       	mul	r24, r25
    1d52:	00 0d       	add	r16, r0
    1d54:	11 1d       	adc	r17, r1
    1d56:	11 24       	eor	r1, r1
    1d58:	cf b6       	in	r12, 0x3f	; 63
    1d5a:	f8 94       	cli
    1d5c:	c7 01       	movw	r24, r14
    1d5e:	45 dd       	rcall	.-1398   	; 0x17ea <adc_enable_clock>
    1d60:	f8 01       	movw	r30, r16
    1d62:	80 81       	ld	r24, Z
    1d64:	88 83       	st	Y, r24
    1d66:	82 81       	ldd	r24, Z+2	; 0x02
    1d68:	8a 83       	std	Y+2, r24	; 0x02
    1d6a:	81 81       	ldd	r24, Z+1	; 0x01
    1d6c:	89 83       	std	Y+1, r24	; 0x01
    1d6e:	d0 fe       	sbrs	r13, 0
    1d70:	02 c0       	rjmp	.+4      	; 0x1d76 <adcch_read_configuration+0x5c>
    1d72:	86 81       	ldd	r24, Z+6	; 0x06
    1d74:	8b 83       	std	Y+3, r24	; 0x03
    1d76:	c7 01       	movw	r24, r14
    1d78:	59 dd       	rcall	.-1358   	; 0x182c <adc_disable_clock>
    1d7a:	cf be       	out	0x3f, r12	; 63
    1d7c:	df 91       	pop	r29
    1d7e:	cf 91       	pop	r28
    1d80:	1f 91       	pop	r17
    1d82:	0f 91       	pop	r16
    1d84:	ff 90       	pop	r15
    1d86:	ef 90       	pop	r14
    1d88:	df 90       	pop	r13
    1d8a:	cf 90       	pop	r12
    1d8c:	08 95       	ret

00001d8e <twim_interrupt_handler>:
    1d8e:	cf 93       	push	r28
    1d90:	df 93       	push	r29
    1d92:	e0 91 ad 22 	lds	r30, 0x22AD
    1d96:	f0 91 ae 22 	lds	r31, 0x22AE
    1d9a:	84 81       	ldd	r24, Z+4	; 0x04
    1d9c:	83 ff       	sbrs	r24, 3
    1d9e:	08 c0       	rjmp	.+16     	; 0x1db0 <twim_interrupt_handler+0x22>
    1da0:	88 60       	ori	r24, 0x08	; 8
    1da2:	84 83       	std	Z+4, r24	; 0x04
    1da4:	83 e0       	ldi	r24, 0x03	; 3
    1da6:	83 83       	std	Z+3, r24	; 0x03
    1da8:	86 ef       	ldi	r24, 0xF6	; 246
    1daa:	80 93 b7 22 	sts	0x22B7, r24
    1dae:	89 c0       	rjmp	.+274    	; 0x1ec2 <twim_interrupt_handler+0x134>
    1db0:	98 2f       	mov	r25, r24
    1db2:	94 71       	andi	r25, 0x14	; 20
    1db4:	31 f0       	breq	.+12     	; 0x1dc2 <twim_interrupt_handler+0x34>
    1db6:	83 e0       	ldi	r24, 0x03	; 3
    1db8:	83 83       	std	Z+3, r24	; 0x03
    1dba:	8f ef       	ldi	r24, 0xFF	; 255
    1dbc:	80 93 b7 22 	sts	0x22B7, r24
    1dc0:	80 c0       	rjmp	.+256    	; 0x1ec2 <twim_interrupt_handler+0x134>
    1dc2:	86 ff       	sbrs	r24, 6
    1dc4:	45 c0       	rjmp	.+138    	; 0x1e50 <twim_interrupt_handler+0xc2>
    1dc6:	a0 91 af 22 	lds	r26, 0x22AF
    1dca:	b0 91 b0 22 	lds	r27, 0x22B0
    1dce:	80 91 b1 22 	lds	r24, 0x22B1
    1dd2:	90 91 b2 22 	lds	r25, 0x22B2
    1dd6:	14 96       	adiw	r26, 0x04	; 4
    1dd8:	2d 91       	ld	r18, X+
    1dda:	3c 91       	ld	r19, X
    1ddc:	15 97       	sbiw	r26, 0x05	; 5
    1dde:	82 17       	cp	r24, r18
    1de0:	93 07       	cpc	r25, r19
    1de2:	6c f4       	brge	.+26     	; 0x1dfe <twim_interrupt_handler+0x70>
    1de4:	9c 01       	movw	r18, r24
    1de6:	2f 5f       	subi	r18, 0xFF	; 255
    1de8:	3f 4f       	sbci	r19, 0xFF	; 255
    1dea:	20 93 b1 22 	sts	0x22B1, r18
    1dee:	30 93 b2 22 	sts	0x22B2, r19
    1df2:	a8 0f       	add	r26, r24
    1df4:	b9 1f       	adc	r27, r25
    1df6:	11 96       	adiw	r26, 0x01	; 1
    1df8:	8c 91       	ld	r24, X
    1dfa:	87 83       	std	Z+7, r24	; 0x07
    1dfc:	62 c0       	rjmp	.+196    	; 0x1ec2 <twim_interrupt_handler+0x134>
    1dfe:	80 91 b3 22 	lds	r24, 0x22B3
    1e02:	90 91 b4 22 	lds	r25, 0x22B4
    1e06:	18 96       	adiw	r26, 0x08	; 8
    1e08:	2d 91       	ld	r18, X+
    1e0a:	3c 91       	ld	r19, X
    1e0c:	19 97       	sbiw	r26, 0x09	; 9
    1e0e:	82 17       	cp	r24, r18
    1e10:	93 07       	cpc	r25, r19
    1e12:	c8 f4       	brcc	.+50     	; 0x1e46 <twim_interrupt_handler+0xb8>
    1e14:	20 91 b5 22 	lds	r18, 0x22B5
    1e18:	22 23       	and	r18, r18
    1e1a:	21 f0       	breq	.+8      	; 0x1e24 <twim_interrupt_handler+0x96>
    1e1c:	86 81       	ldd	r24, Z+6	; 0x06
    1e1e:	81 60       	ori	r24, 0x01	; 1
    1e20:	86 83       	std	Z+6, r24	; 0x06
    1e22:	4f c0       	rjmp	.+158    	; 0x1ec2 <twim_interrupt_handler+0x134>
    1e24:	16 96       	adiw	r26, 0x06	; 6
    1e26:	2d 91       	ld	r18, X+
    1e28:	3c 91       	ld	r19, X
    1e2a:	17 97       	sbiw	r26, 0x07	; 7
    1e2c:	ac 01       	movw	r20, r24
    1e2e:	4f 5f       	subi	r20, 0xFF	; 255
    1e30:	5f 4f       	sbci	r21, 0xFF	; 255
    1e32:	40 93 b3 22 	sts	0x22B3, r20
    1e36:	50 93 b4 22 	sts	0x22B4, r21
    1e3a:	d9 01       	movw	r26, r18
    1e3c:	a8 0f       	add	r26, r24
    1e3e:	b9 1f       	adc	r27, r25
    1e40:	8c 91       	ld	r24, X
    1e42:	87 83       	std	Z+7, r24	; 0x07
    1e44:	3e c0       	rjmp	.+124    	; 0x1ec2 <twim_interrupt_handler+0x134>
    1e46:	83 e0       	ldi	r24, 0x03	; 3
    1e48:	83 83       	std	Z+3, r24	; 0x03
    1e4a:	10 92 b7 22 	sts	0x22B7, r1
    1e4e:	39 c0       	rjmp	.+114    	; 0x1ec2 <twim_interrupt_handler+0x134>
    1e50:	88 23       	and	r24, r24
    1e52:	a4 f5       	brge	.+104    	; 0x1ebc <twim_interrupt_handler+0x12e>
    1e54:	a0 91 af 22 	lds	r26, 0x22AF
    1e58:	b0 91 b0 22 	lds	r27, 0x22B0
    1e5c:	80 91 b3 22 	lds	r24, 0x22B3
    1e60:	90 91 b4 22 	lds	r25, 0x22B4
    1e64:	18 96       	adiw	r26, 0x08	; 8
    1e66:	2d 91       	ld	r18, X+
    1e68:	3c 91       	ld	r19, X
    1e6a:	19 97       	sbiw	r26, 0x09	; 9
    1e6c:	82 17       	cp	r24, r18
    1e6e:	93 07       	cpc	r25, r19
    1e70:	f8 f4       	brcc	.+62     	; 0x1eb0 <twim_interrupt_handler+0x122>
    1e72:	16 96       	adiw	r26, 0x06	; 6
    1e74:	4d 91       	ld	r20, X+
    1e76:	5c 91       	ld	r21, X
    1e78:	17 97       	sbiw	r26, 0x07	; 7
    1e7a:	9c 01       	movw	r18, r24
    1e7c:	2f 5f       	subi	r18, 0xFF	; 255
    1e7e:	3f 4f       	sbci	r19, 0xFF	; 255
    1e80:	20 93 b3 22 	sts	0x22B3, r18
    1e84:	30 93 b4 22 	sts	0x22B4, r19
    1e88:	67 81       	ldd	r22, Z+7	; 0x07
    1e8a:	ea 01       	movw	r28, r20
    1e8c:	c8 0f       	add	r28, r24
    1e8e:	d9 1f       	adc	r29, r25
    1e90:	68 83       	st	Y, r22
    1e92:	18 96       	adiw	r26, 0x08	; 8
    1e94:	8d 91       	ld	r24, X+
    1e96:	9c 91       	ld	r25, X
    1e98:	19 97       	sbiw	r26, 0x09	; 9
    1e9a:	28 17       	cp	r18, r24
    1e9c:	39 07       	cpc	r19, r25
    1e9e:	18 f4       	brcc	.+6      	; 0x1ea6 <twim_interrupt_handler+0x118>
    1ea0:	82 e0       	ldi	r24, 0x02	; 2
    1ea2:	83 83       	std	Z+3, r24	; 0x03
    1ea4:	0e c0       	rjmp	.+28     	; 0x1ec2 <twim_interrupt_handler+0x134>
    1ea6:	87 e0       	ldi	r24, 0x07	; 7
    1ea8:	83 83       	std	Z+3, r24	; 0x03
    1eaa:	10 92 b7 22 	sts	0x22B7, r1
    1eae:	09 c0       	rjmp	.+18     	; 0x1ec2 <twim_interrupt_handler+0x134>
    1eb0:	83 e0       	ldi	r24, 0x03	; 3
    1eb2:	83 83       	std	Z+3, r24	; 0x03
    1eb4:	89 ef       	ldi	r24, 0xF9	; 249
    1eb6:	80 93 b7 22 	sts	0x22B7, r24
    1eba:	03 c0       	rjmp	.+6      	; 0x1ec2 <twim_interrupt_handler+0x134>
    1ebc:	8b ef       	ldi	r24, 0xFB	; 251
    1ebe:	80 93 b7 22 	sts	0x22B7, r24
    1ec2:	df 91       	pop	r29
    1ec4:	cf 91       	pop	r28
    1ec6:	08 95       	ret

00001ec8 <__vector_13>:
    1ec8:	1f 92       	push	r1
    1eca:	0f 92       	push	r0
    1ecc:	0f b6       	in	r0, 0x3f	; 63
    1ece:	0f 92       	push	r0
    1ed0:	11 24       	eor	r1, r1
    1ed2:	0b b6       	in	r0, 0x3b	; 59
    1ed4:	0f 92       	push	r0
    1ed6:	2f 93       	push	r18
    1ed8:	3f 93       	push	r19
    1eda:	4f 93       	push	r20
    1edc:	5f 93       	push	r21
    1ede:	6f 93       	push	r22
    1ee0:	7f 93       	push	r23
    1ee2:	8f 93       	push	r24
    1ee4:	9f 93       	push	r25
    1ee6:	af 93       	push	r26
    1ee8:	bf 93       	push	r27
    1eea:	ef 93       	push	r30
    1eec:	ff 93       	push	r31
    1eee:	4f df       	rcall	.-354    	; 0x1d8e <twim_interrupt_handler>
    1ef0:	ff 91       	pop	r31
    1ef2:	ef 91       	pop	r30
    1ef4:	bf 91       	pop	r27
    1ef6:	af 91       	pop	r26
    1ef8:	9f 91       	pop	r25
    1efa:	8f 91       	pop	r24
    1efc:	7f 91       	pop	r23
    1efe:	6f 91       	pop	r22
    1f00:	5f 91       	pop	r21
    1f02:	4f 91       	pop	r20
    1f04:	3f 91       	pop	r19
    1f06:	2f 91       	pop	r18
    1f08:	0f 90       	pop	r0
    1f0a:	0b be       	out	0x3b, r0	; 59
    1f0c:	0f 90       	pop	r0
    1f0e:	0f be       	out	0x3f, r0	; 63
    1f10:	0f 90       	pop	r0
    1f12:	1f 90       	pop	r1
    1f14:	18 95       	reti

00001f16 <__vector_46>:
    1f16:	1f 92       	push	r1
    1f18:	0f 92       	push	r0
    1f1a:	0f b6       	in	r0, 0x3f	; 63
    1f1c:	0f 92       	push	r0
    1f1e:	11 24       	eor	r1, r1
    1f20:	0b b6       	in	r0, 0x3b	; 59
    1f22:	0f 92       	push	r0
    1f24:	2f 93       	push	r18
    1f26:	3f 93       	push	r19
    1f28:	4f 93       	push	r20
    1f2a:	5f 93       	push	r21
    1f2c:	6f 93       	push	r22
    1f2e:	7f 93       	push	r23
    1f30:	8f 93       	push	r24
    1f32:	9f 93       	push	r25
    1f34:	af 93       	push	r26
    1f36:	bf 93       	push	r27
    1f38:	ef 93       	push	r30
    1f3a:	ff 93       	push	r31
    1f3c:	28 df       	rcall	.-432    	; 0x1d8e <twim_interrupt_handler>
    1f3e:	ff 91       	pop	r31
    1f40:	ef 91       	pop	r30
    1f42:	bf 91       	pop	r27
    1f44:	af 91       	pop	r26
    1f46:	9f 91       	pop	r25
    1f48:	8f 91       	pop	r24
    1f4a:	7f 91       	pop	r23
    1f4c:	6f 91       	pop	r22
    1f4e:	5f 91       	pop	r21
    1f50:	4f 91       	pop	r20
    1f52:	3f 91       	pop	r19
    1f54:	2f 91       	pop	r18
    1f56:	0f 90       	pop	r0
    1f58:	0b be       	out	0x3b, r0	; 59
    1f5a:	0f 90       	pop	r0
    1f5c:	0f be       	out	0x3f, r0	; 63
    1f5e:	0f 90       	pop	r0
    1f60:	1f 90       	pop	r1
    1f62:	18 95       	reti

00001f64 <usart_spi_set_baudrate>:
    1f64:	cf 92       	push	r12
    1f66:	df 92       	push	r13
    1f68:	ef 92       	push	r14
    1f6a:	ff 92       	push	r15
    1f6c:	0f 93       	push	r16
    1f6e:	1f 93       	push	r17
    1f70:	cf 93       	push	r28
    1f72:	df 93       	push	r29
    1f74:	ec 01       	movw	r28, r24
    1f76:	68 01       	movw	r12, r16
    1f78:	79 01       	movw	r14, r18
    1f7a:	f6 94       	lsr	r15
    1f7c:	e7 94       	ror	r14
    1f7e:	d7 94       	ror	r13
    1f80:	c7 94       	ror	r12
    1f82:	4c 15       	cp	r20, r12
    1f84:	5d 05       	cpc	r21, r13
    1f86:	6e 05       	cpc	r22, r14
    1f88:	7f 05       	cpc	r23, r15
    1f8a:	78 f4       	brcc	.+30     	; 0x1faa <usart_spi_set_baudrate+0x46>
    1f8c:	6a 01       	movw	r12, r20
    1f8e:	7b 01       	movw	r14, r22
    1f90:	cc 0c       	add	r12, r12
    1f92:	dd 1c       	adc	r13, r13
    1f94:	ee 1c       	adc	r14, r14
    1f96:	ff 1c       	adc	r15, r15
    1f98:	c9 01       	movw	r24, r18
    1f9a:	b8 01       	movw	r22, r16
    1f9c:	a7 01       	movw	r20, r14
    1f9e:	96 01       	movw	r18, r12
    1fa0:	0e 94 ad 1b 	call	0x375a	; 0x375a <__udivmodsi4>
    1fa4:	21 50       	subi	r18, 0x01	; 1
    1fa6:	31 09       	sbc	r19, r1
    1fa8:	02 c0       	rjmp	.+4      	; 0x1fae <usart_spi_set_baudrate+0x4a>
    1faa:	20 e0       	ldi	r18, 0x00	; 0
    1fac:	30 e0       	ldi	r19, 0x00	; 0
    1fae:	83 2f       	mov	r24, r19
    1fb0:	8f 70       	andi	r24, 0x0F	; 15
    1fb2:	8f 83       	std	Y+7, r24	; 0x07
    1fb4:	2e 83       	std	Y+6, r18	; 0x06
    1fb6:	df 91       	pop	r29
    1fb8:	cf 91       	pop	r28
    1fba:	1f 91       	pop	r17
    1fbc:	0f 91       	pop	r16
    1fbe:	ff 90       	pop	r15
    1fc0:	ef 90       	pop	r14
    1fc2:	df 90       	pop	r13
    1fc4:	cf 90       	pop	r12
    1fc6:	08 95       	ret

00001fc8 <usart_init_spi>:
    1fc8:	ff 92       	push	r15
    1fca:	0f 93       	push	r16
    1fcc:	1f 93       	push	r17
    1fce:	cf 93       	push	r28
    1fd0:	df 93       	push	r29
    1fd2:	ec 01       	movw	r28, r24
    1fd4:	8b 01       	movw	r16, r22
    1fd6:	00 97       	sbiw	r24, 0x00	; 0
    1fd8:	09 f4       	brne	.+2      	; 0x1fdc <usart_init_spi+0x14>
    1fda:	b4 c1       	rjmp	.+872    	; 0x2344 <usart_init_spi+0x37c>
    1fdc:	80 3c       	cpi	r24, 0xC0	; 192
    1fde:	91 05       	cpc	r25, r1
    1fe0:	29 f4       	brne	.+10     	; 0x1fec <usart_init_spi+0x24>
    1fe2:	60 e1       	ldi	r22, 0x10	; 16
    1fe4:	80 e0       	ldi	r24, 0x00	; 0
    1fe6:	0e 94 d8 18 	call	0x31b0	; 0x31b0 <sysclk_enable_module>
    1fea:	ac c1       	rjmp	.+856    	; 0x2344 <usart_init_spi+0x37c>
    1fec:	80 38       	cpi	r24, 0x80	; 128
    1fee:	21 e0       	ldi	r18, 0x01	; 1
    1ff0:	92 07       	cpc	r25, r18
    1ff2:	29 f4       	brne	.+10     	; 0x1ffe <usart_init_spi+0x36>
    1ff4:	62 e0       	ldi	r22, 0x02	; 2
    1ff6:	80 e0       	ldi	r24, 0x00	; 0
    1ff8:	0e 94 d8 18 	call	0x31b0	; 0x31b0 <sysclk_enable_module>
    1ffc:	a3 c1       	rjmp	.+838    	; 0x2344 <usart_init_spi+0x37c>
    1ffe:	c1 15       	cp	r28, r1
    2000:	81 e0       	ldi	r24, 0x01	; 1
    2002:	d8 07       	cpc	r29, r24
    2004:	29 f4       	brne	.+10     	; 0x2010 <usart_init_spi+0x48>
    2006:	61 e0       	ldi	r22, 0x01	; 1
    2008:	80 e0       	ldi	r24, 0x00	; 0
    200a:	0e 94 d8 18 	call	0x31b0	; 0x31b0 <sysclk_enable_module>
    200e:	9a c1       	rjmp	.+820    	; 0x2344 <usart_init_spi+0x37c>
    2010:	c0 38       	cpi	r28, 0x80	; 128
    2012:	e3 e0       	ldi	r30, 0x03	; 3
    2014:	de 07       	cpc	r29, r30
    2016:	29 f4       	brne	.+10     	; 0x2022 <usart_init_spi+0x5a>
    2018:	61 e0       	ldi	r22, 0x01	; 1
    201a:	81 e0       	ldi	r24, 0x01	; 1
    201c:	0e 94 d8 18 	call	0x31b0	; 0x31b0 <sysclk_enable_module>
    2020:	91 c1       	rjmp	.+802    	; 0x2344 <usart_init_spi+0x37c>
    2022:	c0 39       	cpi	r28, 0x90	; 144
    2024:	f3 e0       	ldi	r31, 0x03	; 3
    2026:	df 07       	cpc	r29, r31
    2028:	29 f4       	brne	.+10     	; 0x2034 <usart_init_spi+0x6c>
    202a:	61 e0       	ldi	r22, 0x01	; 1
    202c:	82 e0       	ldi	r24, 0x02	; 2
    202e:	0e 94 d8 18 	call	0x31b0	; 0x31b0 <sysclk_enable_module>
    2032:	88 c1       	rjmp	.+784    	; 0x2344 <usart_init_spi+0x37c>
    2034:	c1 15       	cp	r28, r1
    2036:	22 e0       	ldi	r18, 0x02	; 2
    2038:	d2 07       	cpc	r29, r18
    203a:	29 f4       	brne	.+10     	; 0x2046 <usart_init_spi+0x7e>
    203c:	62 e0       	ldi	r22, 0x02	; 2
    203e:	81 e0       	ldi	r24, 0x01	; 1
    2040:	0e 94 d8 18 	call	0x31b0	; 0x31b0 <sysclk_enable_module>
    2044:	7f c1       	rjmp	.+766    	; 0x2344 <usart_init_spi+0x37c>
    2046:	c0 34       	cpi	r28, 0x40	; 64
    2048:	82 e0       	ldi	r24, 0x02	; 2
    204a:	d8 07       	cpc	r29, r24
    204c:	29 f4       	brne	.+10     	; 0x2058 <usart_init_spi+0x90>
    204e:	62 e0       	ldi	r22, 0x02	; 2
    2050:	82 e0       	ldi	r24, 0x02	; 2
    2052:	0e 94 d8 18 	call	0x31b0	; 0x31b0 <sysclk_enable_module>
    2056:	76 c1       	rjmp	.+748    	; 0x2344 <usart_init_spi+0x37c>
    2058:	c0 32       	cpi	r28, 0x20	; 32
    205a:	e3 e0       	ldi	r30, 0x03	; 3
    205c:	de 07       	cpc	r29, r30
    205e:	29 f4       	brne	.+10     	; 0x206a <usart_init_spi+0xa2>
    2060:	64 e0       	ldi	r22, 0x04	; 4
    2062:	82 e0       	ldi	r24, 0x02	; 2
    2064:	0e 94 d8 18 	call	0x31b0	; 0x31b0 <sysclk_enable_module>
    2068:	6d c1       	rjmp	.+730    	; 0x2344 <usart_init_spi+0x37c>
    206a:	c1 15       	cp	r28, r1
    206c:	f8 e0       	ldi	r31, 0x08	; 8
    206e:	df 07       	cpc	r29, r31
    2070:	29 f4       	brne	.+10     	; 0x207c <usart_init_spi+0xb4>
    2072:	61 e0       	ldi	r22, 0x01	; 1
    2074:	83 e0       	ldi	r24, 0x03	; 3
    2076:	0e 94 d8 18 	call	0x31b0	; 0x31b0 <sysclk_enable_module>
    207a:	64 c1       	rjmp	.+712    	; 0x2344 <usart_init_spi+0x37c>
    207c:	c1 15       	cp	r28, r1
    207e:	29 e0       	ldi	r18, 0x09	; 9
    2080:	d2 07       	cpc	r29, r18
    2082:	29 f4       	brne	.+10     	; 0x208e <usart_init_spi+0xc6>
    2084:	61 e0       	ldi	r22, 0x01	; 1
    2086:	84 e0       	ldi	r24, 0x04	; 4
    2088:	0e 94 d8 18 	call	0x31b0	; 0x31b0 <sysclk_enable_module>
    208c:	5b c1       	rjmp	.+694    	; 0x2344 <usart_init_spi+0x37c>
    208e:	c1 15       	cp	r28, r1
    2090:	8a e0       	ldi	r24, 0x0A	; 10
    2092:	d8 07       	cpc	r29, r24
    2094:	29 f4       	brne	.+10     	; 0x20a0 <usart_init_spi+0xd8>
    2096:	61 e0       	ldi	r22, 0x01	; 1
    2098:	85 e0       	ldi	r24, 0x05	; 5
    209a:	0e 94 d8 18 	call	0x31b0	; 0x31b0 <sysclk_enable_module>
    209e:	52 c1       	rjmp	.+676    	; 0x2344 <usart_init_spi+0x37c>
    20a0:	c1 15       	cp	r28, r1
    20a2:	eb e0       	ldi	r30, 0x0B	; 11
    20a4:	de 07       	cpc	r29, r30
    20a6:	29 f4       	brne	.+10     	; 0x20b2 <usart_init_spi+0xea>
    20a8:	61 e0       	ldi	r22, 0x01	; 1
    20aa:	86 e0       	ldi	r24, 0x06	; 6
    20ac:	0e 94 d8 18 	call	0x31b0	; 0x31b0 <sysclk_enable_module>
    20b0:	49 c1       	rjmp	.+658    	; 0x2344 <usart_init_spi+0x37c>
    20b2:	c0 34       	cpi	r28, 0x40	; 64
    20b4:	f8 e0       	ldi	r31, 0x08	; 8
    20b6:	df 07       	cpc	r29, r31
    20b8:	29 f4       	brne	.+10     	; 0x20c4 <usart_init_spi+0xfc>
    20ba:	62 e0       	ldi	r22, 0x02	; 2
    20bc:	83 e0       	ldi	r24, 0x03	; 3
    20be:	0e 94 d8 18 	call	0x31b0	; 0x31b0 <sysclk_enable_module>
    20c2:	40 c1       	rjmp	.+640    	; 0x2344 <usart_init_spi+0x37c>
    20c4:	c0 34       	cpi	r28, 0x40	; 64
    20c6:	29 e0       	ldi	r18, 0x09	; 9
    20c8:	d2 07       	cpc	r29, r18
    20ca:	29 f4       	brne	.+10     	; 0x20d6 <usart_init_spi+0x10e>
    20cc:	62 e0       	ldi	r22, 0x02	; 2
    20ce:	84 e0       	ldi	r24, 0x04	; 4
    20d0:	0e 94 d8 18 	call	0x31b0	; 0x31b0 <sysclk_enable_module>
    20d4:	37 c1       	rjmp	.+622    	; 0x2344 <usart_init_spi+0x37c>
    20d6:	c0 34       	cpi	r28, 0x40	; 64
    20d8:	8a e0       	ldi	r24, 0x0A	; 10
    20da:	d8 07       	cpc	r29, r24
    20dc:	29 f4       	brne	.+10     	; 0x20e8 <usart_init_spi+0x120>
    20de:	62 e0       	ldi	r22, 0x02	; 2
    20e0:	85 e0       	ldi	r24, 0x05	; 5
    20e2:	0e 94 d8 18 	call	0x31b0	; 0x31b0 <sysclk_enable_module>
    20e6:	2e c1       	rjmp	.+604    	; 0x2344 <usart_init_spi+0x37c>
    20e8:	c0 39       	cpi	r28, 0x90	; 144
    20ea:	e8 e0       	ldi	r30, 0x08	; 8
    20ec:	de 07       	cpc	r29, r30
    20ee:	29 f4       	brne	.+10     	; 0x20fa <usart_init_spi+0x132>
    20f0:	64 e0       	ldi	r22, 0x04	; 4
    20f2:	83 e0       	ldi	r24, 0x03	; 3
    20f4:	0e 94 d8 18 	call	0x31b0	; 0x31b0 <sysclk_enable_module>
    20f8:	25 c1       	rjmp	.+586    	; 0x2344 <usart_init_spi+0x37c>
    20fa:	c0 39       	cpi	r28, 0x90	; 144
    20fc:	f9 e0       	ldi	r31, 0x09	; 9
    20fe:	df 07       	cpc	r29, r31
    2100:	29 f4       	brne	.+10     	; 0x210c <usart_init_spi+0x144>
    2102:	64 e0       	ldi	r22, 0x04	; 4
    2104:	84 e0       	ldi	r24, 0x04	; 4
    2106:	0e 94 d8 18 	call	0x31b0	; 0x31b0 <sysclk_enable_module>
    210a:	1c c1       	rjmp	.+568    	; 0x2344 <usart_init_spi+0x37c>
    210c:	c0 39       	cpi	r28, 0x90	; 144
    210e:	2a e0       	ldi	r18, 0x0A	; 10
    2110:	d2 07       	cpc	r29, r18
    2112:	29 f4       	brne	.+10     	; 0x211e <usart_init_spi+0x156>
    2114:	64 e0       	ldi	r22, 0x04	; 4
    2116:	85 e0       	ldi	r24, 0x05	; 5
    2118:	0e 94 d8 18 	call	0x31b0	; 0x31b0 <sysclk_enable_module>
    211c:	13 c1       	rjmp	.+550    	; 0x2344 <usart_init_spi+0x37c>
    211e:	c0 39       	cpi	r28, 0x90	; 144
    2120:	8b e0       	ldi	r24, 0x0B	; 11
    2122:	d8 07       	cpc	r29, r24
    2124:	29 f4       	brne	.+10     	; 0x2130 <usart_init_spi+0x168>
    2126:	64 e0       	ldi	r22, 0x04	; 4
    2128:	86 e0       	ldi	r24, 0x06	; 6
    212a:	0e 94 d8 18 	call	0x31b0	; 0x31b0 <sysclk_enable_module>
    212e:	0a c1       	rjmp	.+532    	; 0x2344 <usart_init_spi+0x37c>
    2130:	c0 3c       	cpi	r28, 0xC0	; 192
    2132:	e8 e0       	ldi	r30, 0x08	; 8
    2134:	de 07       	cpc	r29, r30
    2136:	29 f4       	brne	.+10     	; 0x2142 <usart_init_spi+0x17a>
    2138:	68 e0       	ldi	r22, 0x08	; 8
    213a:	83 e0       	ldi	r24, 0x03	; 3
    213c:	0e 94 d8 18 	call	0x31b0	; 0x31b0 <sysclk_enable_module>
    2140:	01 c1       	rjmp	.+514    	; 0x2344 <usart_init_spi+0x37c>
    2142:	c0 3c       	cpi	r28, 0xC0	; 192
    2144:	f9 e0       	ldi	r31, 0x09	; 9
    2146:	df 07       	cpc	r29, r31
    2148:	29 f4       	brne	.+10     	; 0x2154 <usart_init_spi+0x18c>
    214a:	68 e0       	ldi	r22, 0x08	; 8
    214c:	84 e0       	ldi	r24, 0x04	; 4
    214e:	0e 94 d8 18 	call	0x31b0	; 0x31b0 <sysclk_enable_module>
    2152:	f8 c0       	rjmp	.+496    	; 0x2344 <usart_init_spi+0x37c>
    2154:	c0 3a       	cpi	r28, 0xA0	; 160
    2156:	28 e0       	ldi	r18, 0x08	; 8
    2158:	d2 07       	cpc	r29, r18
    215a:	79 f4       	brne	.+30     	; 0x217a <usart_init_spi+0x1b2>
    215c:	60 e1       	ldi	r22, 0x10	; 16
    215e:	83 e0       	ldi	r24, 0x03	; 3
    2160:	0e 94 d8 18 	call	0x31b0	; 0x31b0 <sysclk_enable_module>
    2164:	e0 ea       	ldi	r30, 0xA0	; 160
    2166:	f8 e0       	ldi	r31, 0x08	; 8
    2168:	84 81       	ldd	r24, Z+4	; 0x04
    216a:	8f 7e       	andi	r24, 0xEF	; 239
    216c:	84 83       	std	Z+4, r24	; 0x04
    216e:	f8 01       	movw	r30, r16
    2170:	34 81       	ldd	r19, Z+4	; 0x04
    2172:	32 50       	subi	r19, 0x02	; 2
    2174:	80 ea       	ldi	r24, 0xA0	; 160
    2176:	98 e0       	ldi	r25, 0x08	; 8
    2178:	46 c0       	rjmp	.+140    	; 0x2206 <usart_init_spi+0x23e>
    217a:	c0 3a       	cpi	r28, 0xA0	; 160
    217c:	f9 e0       	ldi	r31, 0x09	; 9
    217e:	df 07       	cpc	r29, r31
    2180:	29 f4       	brne	.+10     	; 0x218c <usart_init_spi+0x1c4>
    2182:	60 e1       	ldi	r22, 0x10	; 16
    2184:	84 e0       	ldi	r24, 0x04	; 4
    2186:	0e 94 d8 18 	call	0x31b0	; 0x31b0 <sysclk_enable_module>
    218a:	dc c0       	rjmp	.+440    	; 0x2344 <usart_init_spi+0x37c>
    218c:	c0 3a       	cpi	r28, 0xA0	; 160
    218e:	2a e0       	ldi	r18, 0x0A	; 10
    2190:	d2 07       	cpc	r29, r18
    2192:	29 f4       	brne	.+10     	; 0x219e <usart_init_spi+0x1d6>
    2194:	60 e1       	ldi	r22, 0x10	; 16
    2196:	85 e0       	ldi	r24, 0x05	; 5
    2198:	0e 94 d8 18 	call	0x31b0	; 0x31b0 <sysclk_enable_module>
    219c:	d3 c0       	rjmp	.+422    	; 0x2344 <usart_init_spi+0x37c>
    219e:	c0 3a       	cpi	r28, 0xA0	; 160
    21a0:	8b e0       	ldi	r24, 0x0B	; 11
    21a2:	d8 07       	cpc	r29, r24
    21a4:	29 f4       	brne	.+10     	; 0x21b0 <usart_init_spi+0x1e8>
    21a6:	60 e1       	ldi	r22, 0x10	; 16
    21a8:	86 e0       	ldi	r24, 0x06	; 6
    21aa:	0e 94 d8 18 	call	0x31b0	; 0x31b0 <sysclk_enable_module>
    21ae:	ca c0       	rjmp	.+404    	; 0x2344 <usart_init_spi+0x37c>
    21b0:	c0 3b       	cpi	r28, 0xB0	; 176
    21b2:	e8 e0       	ldi	r30, 0x08	; 8
    21b4:	de 07       	cpc	r29, r30
    21b6:	21 f4       	brne	.+8      	; 0x21c0 <usart_init_spi+0x1f8>
    21b8:	60 e2       	ldi	r22, 0x20	; 32
    21ba:	83 e0       	ldi	r24, 0x03	; 3
    21bc:	f9 d7       	rcall	.+4082   	; 0x31b0 <sysclk_enable_module>
    21be:	c2 c0       	rjmp	.+388    	; 0x2344 <usart_init_spi+0x37c>
    21c0:	c0 3b       	cpi	r28, 0xB0	; 176
    21c2:	f9 e0       	ldi	r31, 0x09	; 9
    21c4:	df 07       	cpc	r29, r31
    21c6:	21 f4       	brne	.+8      	; 0x21d0 <usart_init_spi+0x208>
    21c8:	60 e2       	ldi	r22, 0x20	; 32
    21ca:	84 e0       	ldi	r24, 0x04	; 4
    21cc:	f1 d7       	rcall	.+4066   	; 0x31b0 <sysclk_enable_module>
    21ce:	ba c0       	rjmp	.+372    	; 0x2344 <usart_init_spi+0x37c>
    21d0:	c0 38       	cpi	r28, 0x80	; 128
    21d2:	24 e0       	ldi	r18, 0x04	; 4
    21d4:	d2 07       	cpc	r29, r18
    21d6:	21 f4       	brne	.+8      	; 0x21e0 <usart_init_spi+0x218>
    21d8:	60 e4       	ldi	r22, 0x40	; 64
    21da:	83 e0       	ldi	r24, 0x03	; 3
    21dc:	e9 d7       	rcall	.+4050   	; 0x31b0 <sysclk_enable_module>
    21de:	b2 c0       	rjmp	.+356    	; 0x2344 <usart_init_spi+0x37c>
    21e0:	c0 3a       	cpi	r28, 0xA0	; 160
    21e2:	84 e0       	ldi	r24, 0x04	; 4
    21e4:	d8 07       	cpc	r29, r24
    21e6:	21 f4       	brne	.+8      	; 0x21f0 <usart_init_spi+0x228>
    21e8:	60 e4       	ldi	r22, 0x40	; 64
    21ea:	85 e0       	ldi	r24, 0x05	; 5
    21ec:	e1 d7       	rcall	.+4034   	; 0x31b0 <sysclk_enable_module>
    21ee:	aa c0       	rjmp	.+340    	; 0x2344 <usart_init_spi+0x37c>
    21f0:	8c 81       	ldd	r24, Y+4	; 0x04
    21f2:	8f 7e       	andi	r24, 0xEF	; 239
    21f4:	8c 83       	std	Y+4, r24	; 0x04
    21f6:	fb 01       	movw	r30, r22
    21f8:	34 81       	ldd	r19, Z+4	; 0x04
    21fa:	32 50       	subi	r19, 0x02	; 2
    21fc:	ce 01       	movw	r24, r28
    21fe:	c0 3a       	cpi	r28, 0xA0	; 160
    2200:	f8 e0       	ldi	r31, 0x08	; 8
    2202:	df 07       	cpc	r29, r31
    2204:	51 f4       	brne	.+20     	; 0x221a <usart_init_spi+0x252>
    2206:	e0 e4       	ldi	r30, 0x40	; 64
    2208:	f6 e0       	ldi	r31, 0x06	; 6
    220a:	26 85       	ldd	r18, Z+14	; 0x0e
    220c:	24 fd       	sbrc	r18, 4
    220e:	a2 c0       	rjmp	.+324    	; 0x2354 <usart_init_spi+0x38c>
    2210:	0f 2e       	mov	r0, r31
    2212:	f1 e1       	ldi	r31, 0x11	; 17
    2214:	ff 2e       	mov	r15, r31
    2216:	f0 2d       	mov	r31, r0
    2218:	04 c0       	rjmp	.+8      	; 0x2222 <usart_init_spi+0x25a>
    221a:	80 3b       	cpi	r24, 0xB0	; 176
    221c:	28 e0       	ldi	r18, 0x08	; 8
    221e:	92 07       	cpc	r25, r18
    2220:	99 f0       	breq	.+38     	; 0x2248 <usart_init_spi+0x280>
    2222:	80 3a       	cpi	r24, 0xA0	; 160
    2224:	e9 e0       	ldi	r30, 0x09	; 9
    2226:	9e 07       	cpc	r25, r30
    2228:	51 f4       	brne	.+20     	; 0x223e <usart_init_spi+0x276>
    222a:	e0 e6       	ldi	r30, 0x60	; 96
    222c:	f6 e0       	ldi	r31, 0x06	; 6
    222e:	26 85       	ldd	r18, Z+14	; 0x0e
    2230:	24 fd       	sbrc	r18, 4
    2232:	95 c0       	rjmp	.+298    	; 0x235e <usart_init_spi+0x396>
    2234:	0f 2e       	mov	r0, r31
    2236:	f9 e1       	ldi	r31, 0x19	; 25
    2238:	ff 2e       	mov	r15, r31
    223a:	f0 2d       	mov	r31, r0
    223c:	17 c0       	rjmp	.+46     	; 0x226c <usart_init_spi+0x2a4>
    223e:	80 3b       	cpi	r24, 0xB0	; 176
    2240:	f9 e0       	ldi	r31, 0x09	; 9
    2242:	9f 07       	cpc	r25, r31
    2244:	01 f1       	breq	.+64     	; 0x2286 <usart_init_spi+0x2be>
    2246:	04 c0       	rjmp	.+8      	; 0x2250 <usart_init_spi+0x288>
    2248:	0f 2e       	mov	r0, r31
    224a:	f5 e1       	ldi	r31, 0x15	; 21
    224c:	ff 2e       	mov	r15, r31
    224e:	f0 2d       	mov	r31, r0
    2250:	80 3a       	cpi	r24, 0xA0	; 160
    2252:	2a e0       	ldi	r18, 0x0A	; 10
    2254:	92 07       	cpc	r25, r18
    2256:	51 f4       	brne	.+20     	; 0x226c <usart_init_spi+0x2a4>
    2258:	e0 e8       	ldi	r30, 0x80	; 128
    225a:	f6 e0       	ldi	r31, 0x06	; 6
    225c:	86 85       	ldd	r24, Z+14	; 0x0e
    225e:	84 fd       	sbrc	r24, 4
    2260:	83 c0       	rjmp	.+262    	; 0x2368 <usart_init_spi+0x3a0>
    2262:	0f 2e       	mov	r0, r31
    2264:	f1 e2       	ldi	r31, 0x21	; 33
    2266:	ff 2e       	mov	r15, r31
    2268:	f0 2d       	mov	r31, r0
    226a:	16 c0       	rjmp	.+44     	; 0x2298 <usart_init_spi+0x2d0>
    226c:	80 3a       	cpi	r24, 0xA0	; 160
    226e:	9b 40       	sbci	r25, 0x0B	; 11
    2270:	99 f4       	brne	.+38     	; 0x2298 <usart_init_spi+0x2d0>
    2272:	e0 ea       	ldi	r30, 0xA0	; 160
    2274:	f6 e0       	ldi	r31, 0x06	; 6
    2276:	86 85       	ldd	r24, Z+14	; 0x0e
    2278:	84 ff       	sbrs	r24, 4
    227a:	0a c0       	rjmp	.+20     	; 0x2290 <usart_init_spi+0x2c8>
    227c:	0f 2e       	mov	r0, r31
    227e:	fd e2       	ldi	r31, 0x2D	; 45
    2280:	ff 2e       	mov	r15, r31
    2282:	f0 2d       	mov	r31, r0
    2284:	09 c0       	rjmp	.+18     	; 0x2298 <usart_init_spi+0x2d0>
    2286:	0f 2e       	mov	r0, r31
    2288:	fd e1       	ldi	r31, 0x1D	; 29
    228a:	ff 2e       	mov	r15, r31
    228c:	f0 2d       	mov	r31, r0
    228e:	04 c0       	rjmp	.+8      	; 0x2298 <usart_init_spi+0x2d0>
    2290:	0f 2e       	mov	r0, r31
    2292:	f9 e2       	ldi	r31, 0x29	; 41
    2294:	ff 2e       	mov	r15, r31
    2296:	f0 2d       	mov	r31, r0
    2298:	af 2d       	mov	r26, r15
    229a:	a6 95       	lsr	r26
    229c:	a6 95       	lsr	r26
    229e:	a6 95       	lsr	r26
    22a0:	f0 e2       	ldi	r31, 0x20	; 32
    22a2:	af 9f       	mul	r26, r31
    22a4:	d0 01       	movw	r26, r0
    22a6:	11 24       	eor	r1, r1
    22a8:	ba 5f       	subi	r27, 0xFA	; 250
    22aa:	2f 2d       	mov	r18, r15
    22ac:	27 70       	andi	r18, 0x07	; 7
    22ae:	81 e0       	ldi	r24, 0x01	; 1
    22b0:	90 e0       	ldi	r25, 0x00	; 0
    22b2:	02 2e       	mov	r0, r18
    22b4:	02 c0       	rjmp	.+4      	; 0x22ba <usart_init_spi+0x2f2>
    22b6:	88 0f       	add	r24, r24
    22b8:	99 1f       	adc	r25, r25
    22ba:	0a 94       	dec	r0
    22bc:	e2 f7       	brpl	.-8      	; 0x22b6 <usart_init_spi+0x2ee>
    22be:	11 96       	adiw	r26, 0x01	; 1
    22c0:	8c 93       	st	X, r24
    22c2:	11 97       	sbiw	r26, 0x01	; 1
    22c4:	32 30       	cpi	r19, 0x02	; 2
    22c6:	10 f4       	brcc	.+4      	; 0x22cc <usart_init_spi+0x304>
    22c8:	30 e4       	ldi	r19, 0x40	; 64
    22ca:	01 c0       	rjmp	.+2      	; 0x22ce <usart_init_spi+0x306>
    22cc:	30 e0       	ldi	r19, 0x00	; 0
    22ce:	fd 01       	movw	r30, r26
    22d0:	70 96       	adiw	r30, 0x10	; 16
    22d2:	e2 0f       	add	r30, r18
    22d4:	f1 1d       	adc	r31, r1
    22d6:	9f b7       	in	r25, 0x3f	; 63
    22d8:	f8 94       	cli
    22da:	20 81       	ld	r18, Z
    22dc:	27 70       	andi	r18, 0x07	; 7
    22de:	20 83       	st	Z, r18
    22e0:	20 81       	ld	r18, Z
    22e2:	23 2b       	or	r18, r19
    22e4:	20 83       	st	Z, r18
    22e6:	9f bf       	out	0x3f, r25	; 63
    22e8:	15 96       	adiw	r26, 0x05	; 5
    22ea:	8c 93       	st	X, r24
    22ec:	8d 81       	ldd	r24, Y+5	; 0x05
    22ee:	80 6c       	ori	r24, 0xC0	; 192
    22f0:	8d 83       	std	Y+5, r24	; 0x05
    22f2:	f8 01       	movw	r30, r16
    22f4:	84 81       	ldd	r24, Z+4	; 0x04
    22f6:	8d 7f       	andi	r24, 0xFD	; 253
    22f8:	81 30       	cpi	r24, 0x01	; 1
    22fa:	21 f4       	brne	.+8      	; 0x2304 <usart_init_spi+0x33c>
    22fc:	8d 81       	ldd	r24, Y+5	; 0x05
    22fe:	82 60       	ori	r24, 0x02	; 2
    2300:	8d 83       	std	Y+5, r24	; 0x05
    2302:	03 c0       	rjmp	.+6      	; 0x230a <usart_init_spi+0x342>
    2304:	8d 81       	ldd	r24, Y+5	; 0x05
    2306:	8d 7f       	andi	r24, 0xFD	; 253
    2308:	8d 83       	std	Y+5, r24	; 0x05
    230a:	f8 01       	movw	r30, r16
    230c:	85 81       	ldd	r24, Z+5	; 0x05
    230e:	88 23       	and	r24, r24
    2310:	21 f0       	breq	.+8      	; 0x231a <usart_init_spi+0x352>
    2312:	8d 81       	ldd	r24, Y+5	; 0x05
    2314:	84 60       	ori	r24, 0x04	; 4
    2316:	8d 83       	std	Y+5, r24	; 0x05
    2318:	03 c0       	rjmp	.+6      	; 0x2320 <usart_init_spi+0x358>
    231a:	8d 81       	ldd	r24, Y+5	; 0x05
    231c:	8b 7f       	andi	r24, 0xFB	; 251
    231e:	8d 83       	std	Y+5, r24	; 0x05
    2320:	f8 01       	movw	r30, r16
    2322:	40 81       	ld	r20, Z
    2324:	51 81       	ldd	r21, Z+1	; 0x01
    2326:	62 81       	ldd	r22, Z+2	; 0x02
    2328:	73 81       	ldd	r23, Z+3	; 0x03
    232a:	00 e0       	ldi	r16, 0x00	; 0
    232c:	18 e4       	ldi	r17, 0x48	; 72
    232e:	28 ee       	ldi	r18, 0xE8	; 232
    2330:	31 e0       	ldi	r19, 0x01	; 1
    2332:	ce 01       	movw	r24, r28
    2334:	17 de       	rcall	.-978    	; 0x1f64 <usart_spi_set_baudrate>
    2336:	8c 81       	ldd	r24, Y+4	; 0x04
    2338:	88 60       	ori	r24, 0x08	; 8
    233a:	8c 83       	std	Y+4, r24	; 0x04
    233c:	8c 81       	ldd	r24, Y+4	; 0x04
    233e:	80 61       	ori	r24, 0x10	; 16
    2340:	8c 83       	std	Y+4, r24	; 0x04
    2342:	17 c0       	rjmp	.+46     	; 0x2372 <usart_init_spi+0x3aa>
    2344:	8c 81       	ldd	r24, Y+4	; 0x04
    2346:	8f 7e       	andi	r24, 0xEF	; 239
    2348:	8c 83       	std	Y+4, r24	; 0x04
    234a:	f8 01       	movw	r30, r16
    234c:	34 81       	ldd	r19, Z+4	; 0x04
    234e:	32 50       	subi	r19, 0x02	; 2
    2350:	ce 01       	movw	r24, r28
    2352:	63 cf       	rjmp	.-314    	; 0x221a <usart_init_spi+0x252>
    2354:	0f 2e       	mov	r0, r31
    2356:	f5 e1       	ldi	r31, 0x15	; 21
    2358:	ff 2e       	mov	r15, r31
    235a:	f0 2d       	mov	r31, r0
    235c:	62 cf       	rjmp	.-316    	; 0x2222 <usart_init_spi+0x25a>
    235e:	0f 2e       	mov	r0, r31
    2360:	fd e1       	ldi	r31, 0x1D	; 29
    2362:	ff 2e       	mov	r15, r31
    2364:	f0 2d       	mov	r31, r0
    2366:	82 cf       	rjmp	.-252    	; 0x226c <usart_init_spi+0x2a4>
    2368:	0f 2e       	mov	r0, r31
    236a:	f5 e2       	ldi	r31, 0x25	; 37
    236c:	ff 2e       	mov	r15, r31
    236e:	f0 2d       	mov	r31, r0
    2370:	93 cf       	rjmp	.-218    	; 0x2298 <usart_init_spi+0x2d0>
    2372:	df 91       	pop	r29
    2374:	cf 91       	pop	r28
    2376:	1f 91       	pop	r17
    2378:	0f 91       	pop	r16
    237a:	ff 90       	pop	r15
    237c:	08 95       	ret

0000237e <usart_spi_init>:
    237e:	80 3a       	cpi	r24, 0xA0	; 160
    2380:	28 e0       	ldi	r18, 0x08	; 8
    2382:	92 07       	cpc	r25, r18
    2384:	21 f4       	brne	.+8      	; 0x238e <usart_spi_init+0x10>
    2386:	60 e1       	ldi	r22, 0x10	; 16
    2388:	83 e0       	ldi	r24, 0x03	; 3
    238a:	12 c7       	rjmp	.+3620   	; 0x31b0 <sysclk_enable_module>
    238c:	08 95       	ret
    238e:	80 3b       	cpi	r24, 0xB0	; 176
    2390:	28 e0       	ldi	r18, 0x08	; 8
    2392:	92 07       	cpc	r25, r18
    2394:	21 f4       	brne	.+8      	; 0x239e <usart_spi_init+0x20>
    2396:	60 e2       	ldi	r22, 0x20	; 32
    2398:	83 e0       	ldi	r24, 0x03	; 3
    239a:	0a c7       	rjmp	.+3604   	; 0x31b0 <sysclk_enable_module>
    239c:	08 95       	ret
    239e:	80 3a       	cpi	r24, 0xA0	; 160
    23a0:	29 e0       	ldi	r18, 0x09	; 9
    23a2:	92 07       	cpc	r25, r18
    23a4:	21 f4       	brne	.+8      	; 0x23ae <usart_spi_init+0x30>
    23a6:	60 e1       	ldi	r22, 0x10	; 16
    23a8:	84 e0       	ldi	r24, 0x04	; 4
    23aa:	02 c7       	rjmp	.+3588   	; 0x31b0 <sysclk_enable_module>
    23ac:	08 95       	ret
    23ae:	80 3b       	cpi	r24, 0xB0	; 176
    23b0:	29 e0       	ldi	r18, 0x09	; 9
    23b2:	92 07       	cpc	r25, r18
    23b4:	21 f4       	brne	.+8      	; 0x23be <usart_spi_init+0x40>
    23b6:	60 e2       	ldi	r22, 0x20	; 32
    23b8:	84 e0       	ldi	r24, 0x04	; 4
    23ba:	fa c6       	rjmp	.+3572   	; 0x31b0 <sysclk_enable_module>
    23bc:	08 95       	ret
    23be:	80 3a       	cpi	r24, 0xA0	; 160
    23c0:	2a e0       	ldi	r18, 0x0A	; 10
    23c2:	92 07       	cpc	r25, r18
    23c4:	21 f4       	brne	.+8      	; 0x23ce <usart_spi_init+0x50>
    23c6:	60 e1       	ldi	r22, 0x10	; 16
    23c8:	85 e0       	ldi	r24, 0x05	; 5
    23ca:	f2 c6       	rjmp	.+3556   	; 0x31b0 <sysclk_enable_module>
    23cc:	08 95       	ret
    23ce:	80 3a       	cpi	r24, 0xA0	; 160
    23d0:	9b 40       	sbci	r25, 0x0B	; 11
    23d2:	19 f4       	brne	.+6      	; 0x23da <usart_spi_init+0x5c>
    23d4:	60 e1       	ldi	r22, 0x10	; 16
    23d6:	86 e0       	ldi	r24, 0x06	; 6
    23d8:	eb c6       	rjmp	.+3542   	; 0x31b0 <sysclk_enable_module>
    23da:	08 95       	ret

000023dc <usart_spi_setup_device>:
    23dc:	0f 93       	push	r16
    23de:	1f 93       	push	r17
    23e0:	cf 93       	push	r28
    23e2:	df 93       	push	r29
    23e4:	00 d0       	rcall	.+0      	; 0x23e6 <usart_spi_setup_device+0xa>
    23e6:	00 d0       	rcall	.+0      	; 0x23e8 <usart_spi_setup_device+0xc>
    23e8:	cd b7       	in	r28, 0x3d	; 61
    23ea:	de b7       	in	r29, 0x3e	; 62
    23ec:	09 83       	std	Y+1, r16	; 0x01
    23ee:	1a 83       	std	Y+2, r17	; 0x02
    23f0:	2b 83       	std	Y+3, r18	; 0x03
    23f2:	3c 83       	std	Y+4, r19	; 0x04
    23f4:	4d 83       	std	Y+5, r20	; 0x05
    23f6:	1e 82       	std	Y+6, r1	; 0x06
    23f8:	be 01       	movw	r22, r28
    23fa:	6f 5f       	subi	r22, 0xFF	; 255
    23fc:	7f 4f       	sbci	r23, 0xFF	; 255
    23fe:	e4 dd       	rcall	.-1080   	; 0x1fc8 <usart_init_spi>
    2400:	26 96       	adiw	r28, 0x06	; 6
    2402:	cd bf       	out	0x3d, r28	; 61
    2404:	de bf       	out	0x3e, r29	; 62
    2406:	df 91       	pop	r29
    2408:	cf 91       	pop	r28
    240a:	1f 91       	pop	r17
    240c:	0f 91       	pop	r16
    240e:	08 95       	ret

00002410 <usart_spi_select_device>:
    2410:	fb 01       	movw	r30, r22
    2412:	80 81       	ld	r24, Z
    2414:	e8 2f       	mov	r30, r24
    2416:	e6 95       	lsr	r30
    2418:	e6 95       	lsr	r30
    241a:	e6 95       	lsr	r30
    241c:	40 e2       	ldi	r20, 0x20	; 32
    241e:	e4 9f       	mul	r30, r20
    2420:	f0 01       	movw	r30, r0
    2422:	11 24       	eor	r1, r1
    2424:	fa 5f       	subi	r31, 0xFA	; 250
    2426:	87 70       	andi	r24, 0x07	; 7
    2428:	21 e0       	ldi	r18, 0x01	; 1
    242a:	30 e0       	ldi	r19, 0x00	; 0
    242c:	a9 01       	movw	r20, r18
    242e:	02 c0       	rjmp	.+4      	; 0x2434 <usart_spi_select_device+0x24>
    2430:	44 0f       	add	r20, r20
    2432:	55 1f       	adc	r21, r21
    2434:	8a 95       	dec	r24
    2436:	e2 f7       	brpl	.-8      	; 0x2430 <usart_spi_select_device+0x20>
    2438:	46 83       	std	Z+6, r20	; 0x06
    243a:	08 95       	ret

0000243c <usart_spi_deselect_device>:
    243c:	fb 01       	movw	r30, r22
    243e:	80 81       	ld	r24, Z
    2440:	e8 2f       	mov	r30, r24
    2442:	e6 95       	lsr	r30
    2444:	e6 95       	lsr	r30
    2446:	e6 95       	lsr	r30
    2448:	40 e2       	ldi	r20, 0x20	; 32
    244a:	e4 9f       	mul	r30, r20
    244c:	f0 01       	movw	r30, r0
    244e:	11 24       	eor	r1, r1
    2450:	fa 5f       	subi	r31, 0xFA	; 250
    2452:	87 70       	andi	r24, 0x07	; 7
    2454:	21 e0       	ldi	r18, 0x01	; 1
    2456:	30 e0       	ldi	r19, 0x00	; 0
    2458:	a9 01       	movw	r20, r18
    245a:	02 c0       	rjmp	.+4      	; 0x2460 <usart_spi_deselect_device+0x24>
    245c:	44 0f       	add	r20, r20
    245e:	55 1f       	adc	r21, r21
    2460:	8a 95       	dec	r24
    2462:	e2 f7       	brpl	.-8      	; 0x245c <usart_spi_deselect_device+0x20>
    2464:	45 83       	std	Z+5, r20	; 0x05
    2466:	08 95       	ret

00002468 <gfx_mono_set_framebuffer>:
    2468:	80 93 b8 22 	sts	0x22B8, r24
    246c:	90 93 b9 22 	sts	0x22B9, r25
    2470:	08 95       	ret

00002472 <gfx_mono_framebuffer_put_byte>:
    2472:	20 e8       	ldi	r18, 0x80	; 128
    2474:	82 9f       	mul	r24, r18
    2476:	c0 01       	movw	r24, r0
    2478:	11 24       	eor	r1, r1
    247a:	fc 01       	movw	r30, r24
    247c:	e6 0f       	add	r30, r22
    247e:	f1 1d       	adc	r31, r1
    2480:	80 91 b8 22 	lds	r24, 0x22B8
    2484:	90 91 b9 22 	lds	r25, 0x22B9
    2488:	e8 0f       	add	r30, r24
    248a:	f9 1f       	adc	r31, r25
    248c:	40 83       	st	Z, r20
    248e:	08 95       	ret

00002490 <gfx_mono_framebuffer_get_byte>:
    2490:	20 e8       	ldi	r18, 0x80	; 128
    2492:	82 9f       	mul	r24, r18
    2494:	c0 01       	movw	r24, r0
    2496:	11 24       	eor	r1, r1
    2498:	fc 01       	movw	r30, r24
    249a:	e6 0f       	add	r30, r22
    249c:	f1 1d       	adc	r31, r1
    249e:	80 91 b8 22 	lds	r24, 0x22B8
    24a2:	90 91 b9 22 	lds	r25, 0x22B9
    24a6:	e8 0f       	add	r30, r24
    24a8:	f9 1f       	adc	r31, r25
    24aa:	80 81       	ld	r24, Z
    24ac:	08 95       	ret

000024ae <gfx_mono_generic_draw_horizontal_line>:
    24ae:	ff 92       	push	r15
    24b0:	0f 93       	push	r16
    24b2:	1f 93       	push	r17
    24b4:	cf 93       	push	r28
    24b6:	df 93       	push	r29
    24b8:	e4 2f       	mov	r30, r20
    24ba:	f0 e0       	ldi	r31, 0x00	; 0
    24bc:	e8 0f       	add	r30, r24
    24be:	f1 1d       	adc	r31, r1
    24c0:	e1 38       	cpi	r30, 0x81	; 129
    24c2:	f1 05       	cpc	r31, r1
    24c4:	14 f0       	brlt	.+4      	; 0x24ca <gfx_mono_generic_draw_horizontal_line+0x1c>
    24c6:	40 e8       	ldi	r20, 0x80	; 128
    24c8:	48 1b       	sub	r20, r24
    24ca:	44 23       	and	r20, r20
    24cc:	09 f4       	brne	.+2      	; 0x24d0 <gfx_mono_generic_draw_horizontal_line+0x22>
    24ce:	5c c0       	rjmp	.+184    	; 0x2588 <gfx_mono_generic_draw_horizontal_line+0xda>
    24d0:	c6 2f       	mov	r28, r22
    24d2:	c6 95       	lsr	r28
    24d4:	c6 95       	lsr	r28
    24d6:	c6 95       	lsr	r28
    24d8:	ec 2f       	mov	r30, r28
    24da:	f0 e0       	ldi	r31, 0x00	; 0
    24dc:	f1 95       	neg	r31
    24de:	e1 95       	neg	r30
    24e0:	f1 09       	sbc	r31, r1
    24e2:	ee 0f       	add	r30, r30
    24e4:	ff 1f       	adc	r31, r31
    24e6:	ee 0f       	add	r30, r30
    24e8:	ff 1f       	adc	r31, r31
    24ea:	ee 0f       	add	r30, r30
    24ec:	ff 1f       	adc	r31, r31
    24ee:	df 01       	movw	r26, r30
    24f0:	a6 0f       	add	r26, r22
    24f2:	b1 1d       	adc	r27, r1
    24f4:	bd 01       	movw	r22, r26
    24f6:	e1 e0       	ldi	r30, 0x01	; 1
    24f8:	f0 e0       	ldi	r31, 0x00	; 0
    24fa:	df 01       	movw	r26, r30
    24fc:	02 c0       	rjmp	.+4      	; 0x2502 <gfx_mono_generic_draw_horizontal_line+0x54>
    24fe:	aa 0f       	add	r26, r26
    2500:	bb 1f       	adc	r27, r27
    2502:	6a 95       	dec	r22
    2504:	e2 f7       	brpl	.-8      	; 0x24fe <gfx_mono_generic_draw_horizontal_line+0x50>
    2506:	0a 2f       	mov	r16, r26
    2508:	21 30       	cpi	r18, 0x01	; 1
    250a:	49 f0       	breq	.+18     	; 0x251e <gfx_mono_generic_draw_horizontal_line+0x70>
    250c:	68 f0       	brcs	.+26     	; 0x2528 <gfx_mono_generic_draw_horizontal_line+0x7a>
    250e:	22 30       	cpi	r18, 0x02	; 2
    2510:	09 f0       	breq	.+2      	; 0x2514 <gfx_mono_generic_draw_horizontal_line+0x66>
    2512:	3a c0       	rjmp	.+116    	; 0x2588 <gfx_mono_generic_draw_horizontal_line+0xda>
    2514:	d4 2f       	mov	r29, r20
    2516:	ff 24       	eor	r15, r15
    2518:	fa 94       	dec	r15
    251a:	f8 0e       	add	r15, r24
    251c:	28 c0       	rjmp	.+80     	; 0x256e <gfx_mono_generic_draw_horizontal_line+0xc0>
    251e:	d4 2f       	mov	r29, r20
    2520:	ff 24       	eor	r15, r15
    2522:	fa 94       	dec	r15
    2524:	f8 0e       	add	r15, r24
    2526:	07 c0       	rjmp	.+14     	; 0x2536 <gfx_mono_generic_draw_horizontal_line+0x88>
    2528:	d4 2f       	mov	r29, r20
    252a:	ff 24       	eor	r15, r15
    252c:	fa 94       	dec	r15
    252e:	f8 0e       	add	r15, r24
    2530:	0a 2f       	mov	r16, r26
    2532:	00 95       	com	r16
    2534:	0e c0       	rjmp	.+28     	; 0x2552 <gfx_mono_generic_draw_horizontal_line+0xa4>
    2536:	1f 2d       	mov	r17, r15
    2538:	1d 0f       	add	r17, r29
    253a:	61 2f       	mov	r22, r17
    253c:	8c 2f       	mov	r24, r28
    253e:	08 d9       	rcall	.-3568   	; 0x1750 <gfx_mono_st7565r_get_byte>
    2540:	48 2f       	mov	r20, r24
    2542:	40 2b       	or	r20, r16
    2544:	61 2f       	mov	r22, r17
    2546:	8c 2f       	mov	r24, r28
    2548:	0e 94 7a 0a 	call	0x14f4	; 0x14f4 <gfx_mono_st7565r_put_byte>
    254c:	d1 50       	subi	r29, 0x01	; 1
    254e:	99 f7       	brne	.-26     	; 0x2536 <gfx_mono_generic_draw_horizontal_line+0x88>
    2550:	1b c0       	rjmp	.+54     	; 0x2588 <gfx_mono_generic_draw_horizontal_line+0xda>
    2552:	1f 2d       	mov	r17, r15
    2554:	1d 0f       	add	r17, r29
    2556:	61 2f       	mov	r22, r17
    2558:	8c 2f       	mov	r24, r28
    255a:	fa d8       	rcall	.-3596   	; 0x1750 <gfx_mono_st7565r_get_byte>
    255c:	48 2f       	mov	r20, r24
    255e:	40 23       	and	r20, r16
    2560:	61 2f       	mov	r22, r17
    2562:	8c 2f       	mov	r24, r28
    2564:	0e 94 7a 0a 	call	0x14f4	; 0x14f4 <gfx_mono_st7565r_put_byte>
    2568:	d1 50       	subi	r29, 0x01	; 1
    256a:	99 f7       	brne	.-26     	; 0x2552 <gfx_mono_generic_draw_horizontal_line+0xa4>
    256c:	0d c0       	rjmp	.+26     	; 0x2588 <gfx_mono_generic_draw_horizontal_line+0xda>
    256e:	1f 2d       	mov	r17, r15
    2570:	1d 0f       	add	r17, r29
    2572:	61 2f       	mov	r22, r17
    2574:	8c 2f       	mov	r24, r28
    2576:	ec d8       	rcall	.-3624   	; 0x1750 <gfx_mono_st7565r_get_byte>
    2578:	48 2f       	mov	r20, r24
    257a:	40 27       	eor	r20, r16
    257c:	61 2f       	mov	r22, r17
    257e:	8c 2f       	mov	r24, r28
    2580:	0e 94 7a 0a 	call	0x14f4	; 0x14f4 <gfx_mono_st7565r_put_byte>
    2584:	d1 50       	subi	r29, 0x01	; 1
    2586:	99 f7       	brne	.-26     	; 0x256e <gfx_mono_generic_draw_horizontal_line+0xc0>
    2588:	df 91       	pop	r29
    258a:	cf 91       	pop	r28
    258c:	1f 91       	pop	r17
    258e:	0f 91       	pop	r16
    2590:	ff 90       	pop	r15
    2592:	08 95       	ret

00002594 <gfx_mono_generic_draw_filled_rect>:
    2594:	ff 92       	push	r15
    2596:	0f 93       	push	r16
    2598:	1f 93       	push	r17
    259a:	cf 93       	push	r28
    259c:	df 93       	push	r29
    259e:	d8 2f       	mov	r29, r24
    25a0:	14 2f       	mov	r17, r20
    25a2:	22 23       	and	r18, r18
    25a4:	61 f0       	breq	.+24     	; 0x25be <gfx_mono_generic_draw_filled_rect+0x2a>
    25a6:	c2 2f       	mov	r28, r18
    25a8:	ff 24       	eor	r15, r15
    25aa:	fa 94       	dec	r15
    25ac:	f6 0e       	add	r15, r22
    25ae:	6f 2d       	mov	r22, r15
    25b0:	6c 0f       	add	r22, r28
    25b2:	20 2f       	mov	r18, r16
    25b4:	41 2f       	mov	r20, r17
    25b6:	8d 2f       	mov	r24, r29
    25b8:	7a df       	rcall	.-268    	; 0x24ae <gfx_mono_generic_draw_horizontal_line>
    25ba:	c1 50       	subi	r28, 0x01	; 1
    25bc:	c1 f7       	brne	.-16     	; 0x25ae <gfx_mono_generic_draw_filled_rect+0x1a>
    25be:	df 91       	pop	r29
    25c0:	cf 91       	pop	r28
    25c2:	1f 91       	pop	r17
    25c4:	0f 91       	pop	r16
    25c6:	ff 90       	pop	r15
    25c8:	08 95       	ret

000025ca <gfx_mono_draw_char>:
    25ca:	af 92       	push	r10
    25cc:	bf 92       	push	r11
    25ce:	cf 92       	push	r12
    25d0:	df 92       	push	r13
    25d2:	ef 92       	push	r14
    25d4:	ff 92       	push	r15
    25d6:	0f 93       	push	r16
    25d8:	1f 93       	push	r17
    25da:	cf 93       	push	r28
    25dc:	df 93       	push	r29
    25de:	c8 2f       	mov	r28, r24
    25e0:	d6 2e       	mov	r13, r22
    25e2:	a4 2e       	mov	r10, r20
    25e4:	79 01       	movw	r14, r18
    25e6:	00 e0       	ldi	r16, 0x00	; 0
    25e8:	f9 01       	movw	r30, r18
    25ea:	24 81       	ldd	r18, Z+4	; 0x04
    25ec:	43 81       	ldd	r20, Z+3	; 0x03
    25ee:	6a 2d       	mov	r22, r10
    25f0:	8d 2d       	mov	r24, r13
    25f2:	d0 df       	rcall	.-96     	; 0x2594 <gfx_mono_generic_draw_filled_rect>
    25f4:	f7 01       	movw	r30, r14
    25f6:	90 81       	ld	r25, Z
    25f8:	91 11       	cpse	r25, r1
    25fa:	39 c0       	rjmp	.+114    	; 0x266e <gfx_mono_draw_char+0xa4>
    25fc:	83 81       	ldd	r24, Z+3	; 0x03
    25fe:	a8 2f       	mov	r26, r24
    2600:	a6 95       	lsr	r26
    2602:	a6 95       	lsr	r26
    2604:	a6 95       	lsr	r26
    2606:	87 70       	andi	r24, 0x07	; 7
    2608:	09 f0       	breq	.+2      	; 0x260c <gfx_mono_draw_char+0x42>
    260a:	af 5f       	subi	r26, 0xFF	; 255
    260c:	f7 01       	movw	r30, r14
    260e:	c4 80       	ldd	r12, Z+4	; 0x04
    2610:	ac 9d       	mul	r26, r12
    2612:	d0 01       	movw	r26, r0
    2614:	11 24       	eor	r1, r1
    2616:	ec 2f       	mov	r30, r28
    2618:	f0 e0       	ldi	r31, 0x00	; 0
    261a:	e7 01       	movw	r28, r14
    261c:	8d 81       	ldd	r24, Y+5	; 0x05
    261e:	e8 1b       	sub	r30, r24
    2620:	f1 09       	sbc	r31, r1
    2622:	ae 9f       	mul	r26, r30
    2624:	90 01       	movw	r18, r0
    2626:	af 9f       	mul	r26, r31
    2628:	30 0d       	add	r19, r0
    262a:	be 9f       	mul	r27, r30
    262c:	30 0d       	add	r19, r0
    262e:	11 24       	eor	r1, r1
    2630:	09 80       	ldd	r0, Y+1	; 0x01
    2632:	da 81       	ldd	r29, Y+2	; 0x02
    2634:	c0 2d       	mov	r28, r0
    2636:	c2 0f       	add	r28, r18
    2638:	d3 1f       	adc	r29, r19
    263a:	f7 01       	movw	r30, r14
    263c:	b3 80       	ldd	r11, Z+3	; 0x03
    263e:	bb 20       	and	r11, r11
    2640:	99 f0       	breq	.+38     	; 0x2668 <gfx_mono_draw_char+0x9e>
    2642:	00 e0       	ldi	r16, 0x00	; 0
    2644:	10 e0       	ldi	r17, 0x00	; 0
    2646:	81 2f       	mov	r24, r17
    2648:	8d 0d       	add	r24, r13
    264a:	91 2f       	mov	r25, r17
    264c:	97 70       	andi	r25, 0x07	; 7
    264e:	19 f4       	brne	.+6      	; 0x2656 <gfx_mono_draw_char+0x8c>
    2650:	fe 01       	movw	r30, r28
    2652:	04 91       	lpm	r16, Z
    2654:	21 96       	adiw	r28, 0x01	; 1
    2656:	00 23       	and	r16, r16
    2658:	1c f4       	brge	.+6      	; 0x2660 <gfx_mono_draw_char+0x96>
    265a:	41 e0       	ldi	r20, 0x01	; 1
    265c:	6a 2d       	mov	r22, r10
    265e:	3b d8       	rcall	.-3978   	; 0x16d6 <gfx_mono_st7565r_draw_pixel>
    2660:	00 0f       	add	r16, r16
    2662:	1f 5f       	subi	r17, 0xFF	; 255
    2664:	1b 11       	cpse	r17, r11
    2666:	ef cf       	rjmp	.-34     	; 0x2646 <gfx_mono_draw_char+0x7c>
    2668:	a3 94       	inc	r10
    266a:	ca 94       	dec	r12
    266c:	31 f7       	brne	.-52     	; 0x263a <gfx_mono_draw_char+0x70>
    266e:	df 91       	pop	r29
    2670:	cf 91       	pop	r28
    2672:	1f 91       	pop	r17
    2674:	0f 91       	pop	r16
    2676:	ff 90       	pop	r15
    2678:	ef 90       	pop	r14
    267a:	df 90       	pop	r13
    267c:	cf 90       	pop	r12
    267e:	bf 90       	pop	r11
    2680:	af 90       	pop	r10
    2682:	08 95       	ret

00002684 <gfx_mono_draw_string>:
    2684:	df 92       	push	r13
    2686:	ef 92       	push	r14
    2688:	ff 92       	push	r15
    268a:	0f 93       	push	r16
    268c:	1f 93       	push	r17
    268e:	cf 93       	push	r28
    2690:	df 93       	push	r29
    2692:	e4 2e       	mov	r14, r20
    2694:	89 01       	movw	r16, r18
    2696:	ec 01       	movw	r28, r24
    2698:	f6 2e       	mov	r15, r22
    269a:	d6 2e       	mov	r13, r22
    269c:	89 91       	ld	r24, Y+
    269e:	8a 30       	cpi	r24, 0x0A	; 10
    26a0:	31 f4       	brne	.+12     	; 0x26ae <gfx_mono_draw_string+0x2a>
    26a2:	f8 01       	movw	r30, r16
    26a4:	84 81       	ldd	r24, Z+4	; 0x04
    26a6:	8f 5f       	subi	r24, 0xFF	; 255
    26a8:	e8 0e       	add	r14, r24
    26aa:	fd 2c       	mov	r15, r13
    26ac:	09 c0       	rjmp	.+18     	; 0x26c0 <gfx_mono_draw_string+0x3c>
    26ae:	8d 30       	cpi	r24, 0x0D	; 13
    26b0:	39 f0       	breq	.+14     	; 0x26c0 <gfx_mono_draw_string+0x3c>
    26b2:	98 01       	movw	r18, r16
    26b4:	4e 2d       	mov	r20, r14
    26b6:	6f 2d       	mov	r22, r15
    26b8:	88 df       	rcall	.-240    	; 0x25ca <gfx_mono_draw_char>
    26ba:	f8 01       	movw	r30, r16
    26bc:	83 81       	ldd	r24, Z+3	; 0x03
    26be:	f8 0e       	add	r15, r24
    26c0:	88 81       	ld	r24, Y
    26c2:	81 11       	cpse	r24, r1
    26c4:	eb cf       	rjmp	.-42     	; 0x269c <gfx_mono_draw_string+0x18>
    26c6:	df 91       	pop	r29
    26c8:	cf 91       	pop	r28
    26ca:	1f 91       	pop	r17
    26cc:	0f 91       	pop	r16
    26ce:	ff 90       	pop	r15
    26d0:	ef 90       	pop	r14
    26d2:	df 90       	pop	r13
    26d4:	08 95       	ret

000026d6 <vListInitialise>:
    26d6:	fc 01       	movw	r30, r24
    26d8:	03 96       	adiw	r24, 0x03	; 3
    26da:	81 83       	std	Z+1, r24	; 0x01
    26dc:	92 83       	std	Z+2, r25	; 0x02
    26de:	2f ef       	ldi	r18, 0xFF	; 255
    26e0:	3f ef       	ldi	r19, 0xFF	; 255
    26e2:	23 83       	std	Z+3, r18	; 0x03
    26e4:	34 83       	std	Z+4, r19	; 0x04
    26e6:	85 83       	std	Z+5, r24	; 0x05
    26e8:	96 83       	std	Z+6, r25	; 0x06
    26ea:	87 83       	std	Z+7, r24	; 0x07
    26ec:	90 87       	std	Z+8, r25	; 0x08
    26ee:	10 82       	st	Z, r1
    26f0:	08 95       	ret

000026f2 <vListInitialiseItem>:
    26f2:	fc 01       	movw	r30, r24
    26f4:	10 86       	std	Z+8, r1	; 0x08
    26f6:	11 86       	std	Z+9, r1	; 0x09
    26f8:	08 95       	ret

000026fa <vListInsertEnd>:
    26fa:	cf 93       	push	r28
    26fc:	df 93       	push	r29
    26fe:	9c 01       	movw	r18, r24
    2700:	fb 01       	movw	r30, r22
    2702:	dc 01       	movw	r26, r24
    2704:	11 96       	adiw	r26, 0x01	; 1
    2706:	cd 91       	ld	r28, X+
    2708:	dc 91       	ld	r29, X
    270a:	12 97       	sbiw	r26, 0x02	; 2
    270c:	c2 83       	std	Z+2, r28	; 0x02
    270e:	d3 83       	std	Z+3, r29	; 0x03
    2710:	8c 81       	ldd	r24, Y+4	; 0x04
    2712:	9d 81       	ldd	r25, Y+5	; 0x05
    2714:	84 83       	std	Z+4, r24	; 0x04
    2716:	95 83       	std	Z+5, r25	; 0x05
    2718:	8c 81       	ldd	r24, Y+4	; 0x04
    271a:	9d 81       	ldd	r25, Y+5	; 0x05
    271c:	dc 01       	movw	r26, r24
    271e:	12 96       	adiw	r26, 0x02	; 2
    2720:	6d 93       	st	X+, r22
    2722:	7c 93       	st	X, r23
    2724:	13 97       	sbiw	r26, 0x03	; 3
    2726:	6c 83       	std	Y+4, r22	; 0x04
    2728:	7d 83       	std	Y+5, r23	; 0x05
    272a:	20 87       	std	Z+8, r18	; 0x08
    272c:	31 87       	std	Z+9, r19	; 0x09
    272e:	f9 01       	movw	r30, r18
    2730:	80 81       	ld	r24, Z
    2732:	8f 5f       	subi	r24, 0xFF	; 255
    2734:	80 83       	st	Z, r24
    2736:	df 91       	pop	r29
    2738:	cf 91       	pop	r28
    273a:	08 95       	ret

0000273c <vListInsert>:
    273c:	cf 93       	push	r28
    273e:	df 93       	push	r29
    2740:	eb 01       	movw	r28, r22
    2742:	48 81       	ld	r20, Y
    2744:	59 81       	ldd	r21, Y+1	; 0x01
    2746:	4f 3f       	cpi	r20, 0xFF	; 255
    2748:	2f ef       	ldi	r18, 0xFF	; 255
    274a:	52 07       	cpc	r21, r18
    274c:	21 f4       	brne	.+8      	; 0x2756 <vListInsert+0x1a>
    274e:	fc 01       	movw	r30, r24
    2750:	a7 81       	ldd	r26, Z+7	; 0x07
    2752:	b0 85       	ldd	r27, Z+8	; 0x08
    2754:	0d c0       	rjmp	.+26     	; 0x2770 <vListInsert+0x34>
    2756:	dc 01       	movw	r26, r24
    2758:	13 96       	adiw	r26, 0x03	; 3
    275a:	12 96       	adiw	r26, 0x02	; 2
    275c:	ed 91       	ld	r30, X+
    275e:	fc 91       	ld	r31, X
    2760:	13 97       	sbiw	r26, 0x03	; 3
    2762:	20 81       	ld	r18, Z
    2764:	31 81       	ldd	r19, Z+1	; 0x01
    2766:	42 17       	cp	r20, r18
    2768:	53 07       	cpc	r21, r19
    276a:	10 f0       	brcs	.+4      	; 0x2770 <vListInsert+0x34>
    276c:	df 01       	movw	r26, r30
    276e:	f5 cf       	rjmp	.-22     	; 0x275a <vListInsert+0x1e>
    2770:	12 96       	adiw	r26, 0x02	; 2
    2772:	ed 91       	ld	r30, X+
    2774:	fc 91       	ld	r31, X
    2776:	13 97       	sbiw	r26, 0x03	; 3
    2778:	ea 83       	std	Y+2, r30	; 0x02
    277a:	fb 83       	std	Y+3, r31	; 0x03
    277c:	c4 83       	std	Z+4, r28	; 0x04
    277e:	d5 83       	std	Z+5, r29	; 0x05
    2780:	ac 83       	std	Y+4, r26	; 0x04
    2782:	bd 83       	std	Y+5, r27	; 0x05
    2784:	12 96       	adiw	r26, 0x02	; 2
    2786:	cd 93       	st	X+, r28
    2788:	dc 93       	st	X, r29
    278a:	13 97       	sbiw	r26, 0x03	; 3
    278c:	88 87       	std	Y+8, r24	; 0x08
    278e:	99 87       	std	Y+9, r25	; 0x09
    2790:	fc 01       	movw	r30, r24
    2792:	20 81       	ld	r18, Z
    2794:	2f 5f       	subi	r18, 0xFF	; 255
    2796:	20 83       	st	Z, r18
    2798:	df 91       	pop	r29
    279a:	cf 91       	pop	r28
    279c:	08 95       	ret

0000279e <uxListRemove>:
    279e:	cf 93       	push	r28
    27a0:	df 93       	push	r29
    27a2:	fc 01       	movw	r30, r24
    27a4:	a0 85       	ldd	r26, Z+8	; 0x08
    27a6:	b1 85       	ldd	r27, Z+9	; 0x09
    27a8:	c2 81       	ldd	r28, Z+2	; 0x02
    27aa:	d3 81       	ldd	r29, Z+3	; 0x03
    27ac:	84 81       	ldd	r24, Z+4	; 0x04
    27ae:	95 81       	ldd	r25, Z+5	; 0x05
    27b0:	8c 83       	std	Y+4, r24	; 0x04
    27b2:	9d 83       	std	Y+5, r25	; 0x05
    27b4:	c4 81       	ldd	r28, Z+4	; 0x04
    27b6:	d5 81       	ldd	r29, Z+5	; 0x05
    27b8:	82 81       	ldd	r24, Z+2	; 0x02
    27ba:	93 81       	ldd	r25, Z+3	; 0x03
    27bc:	8a 83       	std	Y+2, r24	; 0x02
    27be:	9b 83       	std	Y+3, r25	; 0x03
    27c0:	11 96       	adiw	r26, 0x01	; 1
    27c2:	cd 91       	ld	r28, X+
    27c4:	dc 91       	ld	r29, X
    27c6:	12 97       	sbiw	r26, 0x02	; 2
    27c8:	ce 17       	cp	r28, r30
    27ca:	df 07       	cpc	r29, r31
    27cc:	31 f4       	brne	.+12     	; 0x27da <uxListRemove+0x3c>
    27ce:	8c 81       	ldd	r24, Y+4	; 0x04
    27d0:	9d 81       	ldd	r25, Y+5	; 0x05
    27d2:	11 96       	adiw	r26, 0x01	; 1
    27d4:	8d 93       	st	X+, r24
    27d6:	9c 93       	st	X, r25
    27d8:	12 97       	sbiw	r26, 0x02	; 2
    27da:	10 86       	std	Z+8, r1	; 0x08
    27dc:	11 86       	std	Z+9, r1	; 0x09
    27de:	8c 91       	ld	r24, X
    27e0:	81 50       	subi	r24, 0x01	; 1
    27e2:	8c 93       	st	X, r24
    27e4:	df 91       	pop	r29
    27e6:	cf 91       	pop	r28
    27e8:	08 95       	ret

000027ea <pxPortInitialiseStack>:
    27ea:	0f 93       	push	r16
    27ec:	1f 93       	push	r17
    27ee:	8b 01       	movw	r16, r22
    27f0:	71 e1       	ldi	r23, 0x11	; 17
    27f2:	fc 01       	movw	r30, r24
    27f4:	70 83       	st	Z, r23
    27f6:	31 97       	sbiw	r30, 0x01	; 1
    27f8:	62 e2       	ldi	r22, 0x22	; 34
    27fa:	60 83       	st	Z, r22
    27fc:	31 97       	sbiw	r30, 0x01	; 1
    27fe:	23 e3       	ldi	r18, 0x33	; 51
    2800:	20 83       	st	Z, r18
    2802:	22 27       	eor	r18, r18
    2804:	17 fd       	sbrc	r17, 7
    2806:	20 95       	com	r18
    2808:	32 2f       	mov	r19, r18
    280a:	31 97       	sbiw	r30, 0x01	; 1
    280c:	00 83       	st	Z, r16
    280e:	31 97       	sbiw	r30, 0x01	; 1
    2810:	10 83       	st	Z, r17
    2812:	31 97       	sbiw	r30, 0x01	; 1
    2814:	20 83       	st	Z, r18
    2816:	31 97       	sbiw	r30, 0x01	; 1
    2818:	10 82       	st	Z, r1
    281a:	31 97       	sbiw	r30, 0x01	; 1
    281c:	20 e8       	ldi	r18, 0x80	; 128
    281e:	20 83       	st	Z, r18
    2820:	31 97       	sbiw	r30, 0x01	; 1
    2822:	10 82       	st	Z, r1
    2824:	31 97       	sbiw	r30, 0x01	; 1
    2826:	22 e0       	ldi	r18, 0x02	; 2
    2828:	20 83       	st	Z, r18
    282a:	31 97       	sbiw	r30, 0x01	; 1
    282c:	23 e0       	ldi	r18, 0x03	; 3
    282e:	20 83       	st	Z, r18
    2830:	31 97       	sbiw	r30, 0x01	; 1
    2832:	24 e0       	ldi	r18, 0x04	; 4
    2834:	20 83       	st	Z, r18
    2836:	31 97       	sbiw	r30, 0x01	; 1
    2838:	25 e0       	ldi	r18, 0x05	; 5
    283a:	20 83       	st	Z, r18
    283c:	31 97       	sbiw	r30, 0x01	; 1
    283e:	26 e0       	ldi	r18, 0x06	; 6
    2840:	20 83       	st	Z, r18
    2842:	31 97       	sbiw	r30, 0x01	; 1
    2844:	27 e0       	ldi	r18, 0x07	; 7
    2846:	20 83       	st	Z, r18
    2848:	31 97       	sbiw	r30, 0x01	; 1
    284a:	28 e0       	ldi	r18, 0x08	; 8
    284c:	20 83       	st	Z, r18
    284e:	31 97       	sbiw	r30, 0x01	; 1
    2850:	29 e0       	ldi	r18, 0x09	; 9
    2852:	20 83       	st	Z, r18
    2854:	31 97       	sbiw	r30, 0x01	; 1
    2856:	20 e1       	ldi	r18, 0x10	; 16
    2858:	20 83       	st	Z, r18
    285a:	31 97       	sbiw	r30, 0x01	; 1
    285c:	70 83       	st	Z, r23
    285e:	31 97       	sbiw	r30, 0x01	; 1
    2860:	22 e1       	ldi	r18, 0x12	; 18
    2862:	20 83       	st	Z, r18
    2864:	31 97       	sbiw	r30, 0x01	; 1
    2866:	23 e1       	ldi	r18, 0x13	; 19
    2868:	20 83       	st	Z, r18
    286a:	31 97       	sbiw	r30, 0x01	; 1
    286c:	24 e1       	ldi	r18, 0x14	; 20
    286e:	20 83       	st	Z, r18
    2870:	31 97       	sbiw	r30, 0x01	; 1
    2872:	25 e1       	ldi	r18, 0x15	; 21
    2874:	20 83       	st	Z, r18
    2876:	31 97       	sbiw	r30, 0x01	; 1
    2878:	26 e1       	ldi	r18, 0x16	; 22
    287a:	20 83       	st	Z, r18
    287c:	31 97       	sbiw	r30, 0x01	; 1
    287e:	27 e1       	ldi	r18, 0x17	; 23
    2880:	20 83       	st	Z, r18
    2882:	31 97       	sbiw	r30, 0x01	; 1
    2884:	28 e1       	ldi	r18, 0x18	; 24
    2886:	20 83       	st	Z, r18
    2888:	31 97       	sbiw	r30, 0x01	; 1
    288a:	29 e1       	ldi	r18, 0x19	; 25
    288c:	20 83       	st	Z, r18
    288e:	31 97       	sbiw	r30, 0x01	; 1
    2890:	20 e2       	ldi	r18, 0x20	; 32
    2892:	20 83       	st	Z, r18
    2894:	31 97       	sbiw	r30, 0x01	; 1
    2896:	21 e2       	ldi	r18, 0x21	; 33
    2898:	20 83       	st	Z, r18
    289a:	31 97       	sbiw	r30, 0x01	; 1
    289c:	60 83       	st	Z, r22
    289e:	31 97       	sbiw	r30, 0x01	; 1
    28a0:	23 e2       	ldi	r18, 0x23	; 35
    28a2:	20 83       	st	Z, r18
    28a4:	31 97       	sbiw	r30, 0x01	; 1
    28a6:	40 83       	st	Z, r20
    28a8:	31 97       	sbiw	r30, 0x01	; 1
    28aa:	50 83       	st	Z, r21
    28ac:	31 97       	sbiw	r30, 0x01	; 1
    28ae:	26 e2       	ldi	r18, 0x26	; 38
    28b0:	20 83       	st	Z, r18
    28b2:	31 97       	sbiw	r30, 0x01	; 1
    28b4:	27 e2       	ldi	r18, 0x27	; 39
    28b6:	20 83       	st	Z, r18
    28b8:	31 97       	sbiw	r30, 0x01	; 1
    28ba:	28 e2       	ldi	r18, 0x28	; 40
    28bc:	20 83       	st	Z, r18
    28be:	31 97       	sbiw	r30, 0x01	; 1
    28c0:	29 e2       	ldi	r18, 0x29	; 41
    28c2:	20 83       	st	Z, r18
    28c4:	31 97       	sbiw	r30, 0x01	; 1
    28c6:	20 e3       	ldi	r18, 0x30	; 48
    28c8:	20 83       	st	Z, r18
    28ca:	31 97       	sbiw	r30, 0x01	; 1
    28cc:	21 e3       	ldi	r18, 0x31	; 49
    28ce:	20 83       	st	Z, r18
    28d0:	87 97       	sbiw	r24, 0x27	; 39
    28d2:	1f 91       	pop	r17
    28d4:	0f 91       	pop	r16
    28d6:	08 95       	ret

000028d8 <xPortStartScheduler>:
    28d8:	f8 94       	cli
    28da:	e0 e7       	ldi	r30, 0x70	; 112
    28dc:	f0 e0       	ldi	r31, 0x00	; 0
    28de:	83 81       	ldd	r24, Z+3	; 0x03
    28e0:	8a 7f       	andi	r24, 0xFA	; 250
    28e2:	83 83       	std	Z+3, r24	; 0x03
    28e4:	e0 e0       	ldi	r30, 0x00	; 0
    28e6:	f8 e0       	ldi	r31, 0x08	; 8
    28e8:	80 e0       	ldi	r24, 0x00	; 0
    28ea:	9a ef       	ldi	r25, 0xFA	; 250
    28ec:	86 a3       	std	Z+38, r24	; 0x26
    28ee:	97 a3       	std	Z+39, r25	; 0x27
    28f0:	81 e0       	ldi	r24, 0x01	; 1
    28f2:	86 83       	std	Z+6, r24	; 0x06
    28f4:	a0 ea       	ldi	r26, 0xA0	; 160
    28f6:	b0 e0       	ldi	r27, 0x00	; 0
    28f8:	12 96       	adiw	r26, 0x02	; 2
    28fa:	9c 91       	ld	r25, X
    28fc:	12 97       	sbiw	r26, 0x02	; 2
    28fe:	91 60       	ori	r25, 0x01	; 1
    2900:	12 96       	adiw	r26, 0x02	; 2
    2902:	9c 93       	st	X, r25
    2904:	80 83       	st	Z, r24
    2906:	78 94       	sei
    2908:	a0 91 10 23 	lds	r26, 0x2310
    290c:	b0 91 11 23 	lds	r27, 0x2311
    2910:	0d 90       	ld	r0, X+
    2912:	0d be       	out	0x3d, r0	; 61
    2914:	0d 90       	ld	r0, X+
    2916:	0e be       	out	0x3e, r0	; 62
    2918:	ff 91       	pop	r31
    291a:	ef 91       	pop	r30
    291c:	df 91       	pop	r29
    291e:	cf 91       	pop	r28
    2920:	bf 91       	pop	r27
    2922:	af 91       	pop	r26
    2924:	9f 91       	pop	r25
    2926:	8f 91       	pop	r24
    2928:	7f 91       	pop	r23
    292a:	6f 91       	pop	r22
    292c:	5f 91       	pop	r21
    292e:	4f 91       	pop	r20
    2930:	3f 91       	pop	r19
    2932:	2f 91       	pop	r18
    2934:	1f 91       	pop	r17
    2936:	0f 91       	pop	r16
    2938:	ff 90       	pop	r15
    293a:	ef 90       	pop	r14
    293c:	df 90       	pop	r13
    293e:	cf 90       	pop	r12
    2940:	bf 90       	pop	r11
    2942:	af 90       	pop	r10
    2944:	9f 90       	pop	r9
    2946:	8f 90       	pop	r8
    2948:	7f 90       	pop	r7
    294a:	6f 90       	pop	r6
    294c:	5f 90       	pop	r5
    294e:	4f 90       	pop	r4
    2950:	3f 90       	pop	r3
    2952:	2f 90       	pop	r2
    2954:	1f 90       	pop	r1
    2956:	0f 90       	pop	r0
    2958:	0f be       	out	0x3f, r0	; 63
    295a:	0f 90       	pop	r0
    295c:	08 95       	ret
    295e:	08 95       	ret

00002960 <vPortYield>:
    2960:	0f 92       	push	r0
    2962:	0f b6       	in	r0, 0x3f	; 63
    2964:	f8 94       	cli
    2966:	0f 92       	push	r0
    2968:	1f 92       	push	r1
    296a:	11 24       	eor	r1, r1
    296c:	2f 92       	push	r2
    296e:	3f 92       	push	r3
    2970:	4f 92       	push	r4
    2972:	5f 92       	push	r5
    2974:	6f 92       	push	r6
    2976:	7f 92       	push	r7
    2978:	8f 92       	push	r8
    297a:	9f 92       	push	r9
    297c:	af 92       	push	r10
    297e:	bf 92       	push	r11
    2980:	cf 92       	push	r12
    2982:	df 92       	push	r13
    2984:	ef 92       	push	r14
    2986:	ff 92       	push	r15
    2988:	0f 93       	push	r16
    298a:	1f 93       	push	r17
    298c:	2f 93       	push	r18
    298e:	3f 93       	push	r19
    2990:	4f 93       	push	r20
    2992:	5f 93       	push	r21
    2994:	6f 93       	push	r22
    2996:	7f 93       	push	r23
    2998:	8f 93       	push	r24
    299a:	9f 93       	push	r25
    299c:	af 93       	push	r26
    299e:	bf 93       	push	r27
    29a0:	cf 93       	push	r28
    29a2:	df 93       	push	r29
    29a4:	ef 93       	push	r30
    29a6:	ff 93       	push	r31
    29a8:	a0 91 10 23 	lds	r26, 0x2310
    29ac:	b0 91 11 23 	lds	r27, 0x2311
    29b0:	0d b6       	in	r0, 0x3d	; 61
    29b2:	0d 92       	st	X+, r0
    29b4:	0e b6       	in	r0, 0x3e	; 62
    29b6:	0d 92       	st	X+, r0
    29b8:	76 d3       	rcall	.+1772   	; 0x30a6 <vTaskSwitchContext>
    29ba:	a0 91 10 23 	lds	r26, 0x2310
    29be:	b0 91 11 23 	lds	r27, 0x2311
    29c2:	0d 90       	ld	r0, X+
    29c4:	0d be       	out	0x3d, r0	; 61
    29c6:	0d 90       	ld	r0, X+
    29c8:	0e be       	out	0x3e, r0	; 62
    29ca:	ff 91       	pop	r31
    29cc:	ef 91       	pop	r30
    29ce:	df 91       	pop	r29
    29d0:	cf 91       	pop	r28
    29d2:	bf 91       	pop	r27
    29d4:	af 91       	pop	r26
    29d6:	9f 91       	pop	r25
    29d8:	8f 91       	pop	r24
    29da:	7f 91       	pop	r23
    29dc:	6f 91       	pop	r22
    29de:	5f 91       	pop	r21
    29e0:	4f 91       	pop	r20
    29e2:	3f 91       	pop	r19
    29e4:	2f 91       	pop	r18
    29e6:	1f 91       	pop	r17
    29e8:	0f 91       	pop	r16
    29ea:	ff 90       	pop	r15
    29ec:	ef 90       	pop	r14
    29ee:	df 90       	pop	r13
    29f0:	cf 90       	pop	r12
    29f2:	bf 90       	pop	r11
    29f4:	af 90       	pop	r10
    29f6:	9f 90       	pop	r9
    29f8:	8f 90       	pop	r8
    29fa:	7f 90       	pop	r7
    29fc:	6f 90       	pop	r6
    29fe:	5f 90       	pop	r5
    2a00:	4f 90       	pop	r4
    2a02:	3f 90       	pop	r3
    2a04:	2f 90       	pop	r2
    2a06:	1f 90       	pop	r1
    2a08:	0f 90       	pop	r0
    2a0a:	0f be       	out	0x3f, r0	; 63
    2a0c:	0f 90       	pop	r0
    2a0e:	08 95       	ret

00002a10 <__vector_14>:
    2a10:	0f 92       	push	r0
    2a12:	0f b6       	in	r0, 0x3f	; 63
    2a14:	f8 94       	cli
    2a16:	0f 92       	push	r0
    2a18:	1f 92       	push	r1
    2a1a:	11 24       	eor	r1, r1
    2a1c:	2f 92       	push	r2
    2a1e:	3f 92       	push	r3
    2a20:	4f 92       	push	r4
    2a22:	5f 92       	push	r5
    2a24:	6f 92       	push	r6
    2a26:	7f 92       	push	r7
    2a28:	8f 92       	push	r8
    2a2a:	9f 92       	push	r9
    2a2c:	af 92       	push	r10
    2a2e:	bf 92       	push	r11
    2a30:	cf 92       	push	r12
    2a32:	df 92       	push	r13
    2a34:	ef 92       	push	r14
    2a36:	ff 92       	push	r15
    2a38:	0f 93       	push	r16
    2a3a:	1f 93       	push	r17
    2a3c:	2f 93       	push	r18
    2a3e:	3f 93       	push	r19
    2a40:	4f 93       	push	r20
    2a42:	5f 93       	push	r21
    2a44:	6f 93       	push	r22
    2a46:	7f 93       	push	r23
    2a48:	8f 93       	push	r24
    2a4a:	9f 93       	push	r25
    2a4c:	af 93       	push	r26
    2a4e:	bf 93       	push	r27
    2a50:	cf 93       	push	r28
    2a52:	df 93       	push	r29
    2a54:	ef 93       	push	r30
    2a56:	ff 93       	push	r31
    2a58:	a0 91 10 23 	lds	r26, 0x2310
    2a5c:	b0 91 11 23 	lds	r27, 0x2311
    2a60:	0d b6       	in	r0, 0x3d	; 61
    2a62:	0d 92       	st	X+, r0
    2a64:	0e b6       	in	r0, 0x3e	; 62
    2a66:	0d 92       	st	X+, r0
    2a68:	b0 d1       	rcall	.+864    	; 0x2dca <xTaskIncrementTick>
    2a6a:	81 11       	cpse	r24, r1
    2a6c:	1c d3       	rcall	.+1592   	; 0x30a6 <vTaskSwitchContext>
    2a6e:	a0 91 10 23 	lds	r26, 0x2310
    2a72:	b0 91 11 23 	lds	r27, 0x2311
    2a76:	0d 90       	ld	r0, X+
    2a78:	0d be       	out	0x3d, r0	; 61
    2a7a:	0d 90       	ld	r0, X+
    2a7c:	0e be       	out	0x3e, r0	; 62
    2a7e:	ff 91       	pop	r31
    2a80:	ef 91       	pop	r30
    2a82:	df 91       	pop	r29
    2a84:	cf 91       	pop	r28
    2a86:	bf 91       	pop	r27
    2a88:	af 91       	pop	r26
    2a8a:	9f 91       	pop	r25
    2a8c:	8f 91       	pop	r24
    2a8e:	7f 91       	pop	r23
    2a90:	6f 91       	pop	r22
    2a92:	5f 91       	pop	r21
    2a94:	4f 91       	pop	r20
    2a96:	3f 91       	pop	r19
    2a98:	2f 91       	pop	r18
    2a9a:	1f 91       	pop	r17
    2a9c:	0f 91       	pop	r16
    2a9e:	ff 90       	pop	r15
    2aa0:	ef 90       	pop	r14
    2aa2:	df 90       	pop	r13
    2aa4:	cf 90       	pop	r12
    2aa6:	bf 90       	pop	r11
    2aa8:	af 90       	pop	r10
    2aaa:	9f 90       	pop	r9
    2aac:	8f 90       	pop	r8
    2aae:	7f 90       	pop	r7
    2ab0:	6f 90       	pop	r6
    2ab2:	5f 90       	pop	r5
    2ab4:	4f 90       	pop	r4
    2ab6:	3f 90       	pop	r3
    2ab8:	2f 90       	pop	r2
    2aba:	1f 90       	pop	r1
    2abc:	0f 90       	pop	r0
    2abe:	0f be       	out	0x3f, r0	; 63
    2ac0:	0f 90       	pop	r0
    2ac2:	18 95       	reti

00002ac4 <pvPortMalloc>:
    2ac4:	cf 93       	push	r28
    2ac6:	df 93       	push	r29
    2ac8:	ec 01       	movw	r28, r24
    2aca:	79 d1       	rcall	.+754    	; 0x2dbe <vTaskSuspendAll>
    2acc:	ce 01       	movw	r24, r28
    2ace:	a7 d6       	rcall	.+3406   	; 0x381e <malloc>
    2ad0:	ec 01       	movw	r28, r24
    2ad2:	50 d2       	rcall	.+1184   	; 0x2f74 <xTaskResumeAll>
    2ad4:	ce 01       	movw	r24, r28
    2ad6:	df 91       	pop	r29
    2ad8:	cf 91       	pop	r28
    2ada:	08 95       	ret

00002adc <vPortFree>:
    2adc:	cf 93       	push	r28
    2ade:	df 93       	push	r29
    2ae0:	ec 01       	movw	r28, r24
    2ae2:	00 97       	sbiw	r24, 0x00	; 0
    2ae4:	21 f0       	breq	.+8      	; 0x2aee <vPortFree+0x12>
    2ae6:	6b d1       	rcall	.+726    	; 0x2dbe <vTaskSuspendAll>
    2ae8:	ce 01       	movw	r24, r28
    2aea:	31 d7       	rcall	.+3682   	; 0x394e <free>
    2aec:	43 d2       	rcall	.+1158   	; 0x2f74 <xTaskResumeAll>
    2aee:	df 91       	pop	r29
    2af0:	cf 91       	pop	r28
    2af2:	08 95       	ret

00002af4 <prvIdleTask>:
    2af4:	c3 ee       	ldi	r28, 0xE3	; 227
    2af6:	d2 e2       	ldi	r29, 0x22	; 34
    2af8:	88 81       	ld	r24, Y
    2afa:	82 30       	cpi	r24, 0x02	; 2
    2afc:	08 f4       	brcc	.+2      	; 0x2b00 <prvIdleTask+0xc>
    2afe:	ff cf       	rjmp	.-2      	; 0x2afe <prvIdleTask+0xa>
    2b00:	2f df       	rcall	.-418    	; 0x2960 <vPortYield>
    2b02:	fa cf       	rjmp	.-12     	; 0x2af8 <prvIdleTask+0x4>

00002b04 <prvAddCurrentTaskToDelayedList>:
    2b04:	cf 93       	push	r28
    2b06:	df 93       	push	r29
    2b08:	ec 01       	movw	r28, r24
    2b0a:	e0 91 10 23 	lds	r30, 0x2310
    2b0e:	f0 91 11 23 	lds	r31, 0x2311
    2b12:	82 83       	std	Z+2, r24	; 0x02
    2b14:	93 83       	std	Z+3, r25	; 0x03
    2b16:	80 91 c1 22 	lds	r24, 0x22C1
    2b1a:	90 91 c2 22 	lds	r25, 0x22C2
    2b1e:	c8 17       	cp	r28, r24
    2b20:	d9 07       	cpc	r29, r25
    2b22:	60 f4       	brcc	.+24     	; 0x2b3c <prvAddCurrentTaskToDelayedList+0x38>
    2b24:	60 91 10 23 	lds	r22, 0x2310
    2b28:	70 91 11 23 	lds	r23, 0x2311
    2b2c:	80 91 cd 22 	lds	r24, 0x22CD
    2b30:	90 91 ce 22 	lds	r25, 0x22CE
    2b34:	6e 5f       	subi	r22, 0xFE	; 254
    2b36:	7f 4f       	sbci	r23, 0xFF	; 255
    2b38:	01 de       	rcall	.-1022   	; 0x273c <vListInsert>
    2b3a:	16 c0       	rjmp	.+44     	; 0x2b68 <prvAddCurrentTaskToDelayedList+0x64>
    2b3c:	60 91 10 23 	lds	r22, 0x2310
    2b40:	70 91 11 23 	lds	r23, 0x2311
    2b44:	80 91 cf 22 	lds	r24, 0x22CF
    2b48:	90 91 d0 22 	lds	r25, 0x22D0
    2b4c:	6e 5f       	subi	r22, 0xFE	; 254
    2b4e:	7f 4f       	sbci	r23, 0xFF	; 255
    2b50:	f5 dd       	rcall	.-1046   	; 0x273c <vListInsert>
    2b52:	80 91 0e 20 	lds	r24, 0x200E
    2b56:	90 91 0f 20 	lds	r25, 0x200F
    2b5a:	c8 17       	cp	r28, r24
    2b5c:	d9 07       	cpc	r29, r25
    2b5e:	20 f4       	brcc	.+8      	; 0x2b68 <prvAddCurrentTaskToDelayedList+0x64>
    2b60:	c0 93 0e 20 	sts	0x200E, r28
    2b64:	d0 93 0f 20 	sts	0x200F, r29
    2b68:	df 91       	pop	r29
    2b6a:	cf 91       	pop	r28
    2b6c:	08 95       	ret

00002b6e <xTaskGenericCreate>:
    2b6e:	4f 92       	push	r4
    2b70:	5f 92       	push	r5
    2b72:	6f 92       	push	r6
    2b74:	7f 92       	push	r7
    2b76:	8f 92       	push	r8
    2b78:	9f 92       	push	r9
    2b7a:	af 92       	push	r10
    2b7c:	bf 92       	push	r11
    2b7e:	cf 92       	push	r12
    2b80:	df 92       	push	r13
    2b82:	ef 92       	push	r14
    2b84:	ff 92       	push	r15
    2b86:	0f 93       	push	r16
    2b88:	1f 93       	push	r17
    2b8a:	cf 93       	push	r28
    2b8c:	df 93       	push	r29
    2b8e:	4c 01       	movw	r8, r24
    2b90:	5b 01       	movw	r10, r22
    2b92:	2a 01       	movw	r4, r20
    2b94:	39 01       	movw	r6, r18
    2b96:	81 e2       	ldi	r24, 0x21	; 33
    2b98:	90 e0       	ldi	r25, 0x00	; 0
    2b9a:	94 df       	rcall	.-216    	; 0x2ac4 <pvPortMalloc>
    2b9c:	ec 01       	movw	r28, r24
    2b9e:	00 97       	sbiw	r24, 0x00	; 0
    2ba0:	09 f4       	brne	.+2      	; 0x2ba4 <xTaskGenericCreate+0x36>
    2ba2:	d2 c0       	rjmp	.+420    	; 0x2d48 <xTaskGenericCreate+0x1da>
    2ba4:	c1 14       	cp	r12, r1
    2ba6:	d1 04       	cpc	r13, r1
    2ba8:	09 f0       	breq	.+2      	; 0x2bac <xTaskGenericCreate+0x3e>
    2baa:	b7 c0       	rjmp	.+366    	; 0x2d1a <xTaskGenericCreate+0x1ac>
    2bac:	c2 01       	movw	r24, r4
    2bae:	8a df       	rcall	.-236    	; 0x2ac4 <pvPortMalloc>
    2bb0:	8f 8b       	std	Y+23, r24	; 0x17
    2bb2:	98 8f       	std	Y+24, r25	; 0x18
    2bb4:	89 2b       	or	r24, r25
    2bb6:	09 f0       	breq	.+2      	; 0x2bba <xTaskGenericCreate+0x4c>
    2bb8:	b2 c0       	rjmp	.+356    	; 0x2d1e <xTaskGenericCreate+0x1b0>
    2bba:	ce 01       	movw	r24, r28
    2bbc:	8f df       	rcall	.-226    	; 0x2adc <vPortFree>
    2bbe:	c4 c0       	rjmp	.+392    	; 0x2d48 <xTaskGenericCreate+0x1da>
    2bc0:	cf 01       	movw	r24, r30
    2bc2:	31 91       	ld	r19, Z+
    2bc4:	da 01       	movw	r26, r20
    2bc6:	3d 93       	st	X+, r19
    2bc8:	ad 01       	movw	r20, r26
    2bca:	dc 01       	movw	r26, r24
    2bcc:	8c 91       	ld	r24, X
    2bce:	88 23       	and	r24, r24
    2bd0:	11 f0       	breq	.+4      	; 0x2bd6 <xTaskGenericCreate+0x68>
    2bd2:	21 50       	subi	r18, 0x01	; 1
    2bd4:	a9 f7       	brne	.-22     	; 0x2bc0 <xTaskGenericCreate+0x52>
    2bd6:	18 a2       	std	Y+32, r1	; 0x20
    2bd8:	10 2f       	mov	r17, r16
    2bda:	05 30       	cpi	r16, 0x05	; 5
    2bdc:	08 f0       	brcs	.+2      	; 0x2be0 <xTaskGenericCreate+0x72>
    2bde:	14 e0       	ldi	r17, 0x04	; 4
    2be0:	1e 8b       	std	Y+22, r17	; 0x16
    2be2:	5e 01       	movw	r10, r28
    2be4:	b2 e0       	ldi	r27, 0x02	; 2
    2be6:	ab 0e       	add	r10, r27
    2be8:	b1 1c       	adc	r11, r1
    2bea:	c5 01       	movw	r24, r10
    2bec:	82 dd       	rcall	.-1276   	; 0x26f2 <vListInitialiseItem>
    2bee:	ce 01       	movw	r24, r28
    2bf0:	0c 96       	adiw	r24, 0x0c	; 12
    2bf2:	7f dd       	rcall	.-1282   	; 0x26f2 <vListInitialiseItem>
    2bf4:	c8 87       	std	Y+8, r28	; 0x08
    2bf6:	d9 87       	std	Y+9, r29	; 0x09
    2bf8:	85 e0       	ldi	r24, 0x05	; 5
    2bfa:	90 e0       	ldi	r25, 0x00	; 0
    2bfc:	81 1b       	sub	r24, r17
    2bfe:	91 09       	sbc	r25, r1
    2c00:	8c 87       	std	Y+12, r24	; 0x0c
    2c02:	9d 87       	std	Y+13, r25	; 0x0d
    2c04:	ca 8b       	std	Y+18, r28	; 0x12
    2c06:	db 8b       	std	Y+19, r29	; 0x13
    2c08:	a3 01       	movw	r20, r6
    2c0a:	b4 01       	movw	r22, r8
    2c0c:	c6 01       	movw	r24, r12
    2c0e:	ed dd       	rcall	.-1062   	; 0x27ea <pxPortInitialiseStack>
    2c10:	88 83       	st	Y, r24
    2c12:	99 83       	std	Y+1, r25	; 0x01
    2c14:	e1 14       	cp	r14, r1
    2c16:	f1 04       	cpc	r15, r1
    2c18:	19 f0       	breq	.+6      	; 0x2c20 <xTaskGenericCreate+0xb2>
    2c1a:	f7 01       	movw	r30, r14
    2c1c:	c0 83       	st	Z, r28
    2c1e:	d1 83       	std	Z+1, r29	; 0x01
    2c20:	0f b6       	in	r0, 0x3f	; 63
    2c22:	f8 94       	cli
    2c24:	0f 92       	push	r0
    2c26:	80 91 c3 22 	lds	r24, 0x22C3
    2c2a:	8f 5f       	subi	r24, 0xFF	; 255
    2c2c:	80 93 c3 22 	sts	0x22C3, r24
    2c30:	80 91 10 23 	lds	r24, 0x2310
    2c34:	90 91 11 23 	lds	r25, 0x2311
    2c38:	89 2b       	or	r24, r25
    2c3a:	91 f5       	brne	.+100    	; 0x2ca0 <xTaskGenericCreate+0x132>
    2c3c:	c0 93 10 23 	sts	0x2310, r28
    2c40:	d0 93 11 23 	sts	0x2311, r29
    2c44:	80 91 c3 22 	lds	r24, 0x22C3
    2c48:	81 30       	cpi	r24, 0x01	; 1
    2c4a:	c9 f5       	brne	.+114    	; 0x2cbe <xTaskGenericCreate+0x150>
    2c4c:	0f 2e       	mov	r0, r31
    2c4e:	f3 ee       	ldi	r31, 0xE3	; 227
    2c50:	ef 2e       	mov	r14, r31
    2c52:	f2 e2       	ldi	r31, 0x22	; 34
    2c54:	ff 2e       	mov	r15, r31
    2c56:	f0 2d       	mov	r31, r0
    2c58:	0f 2e       	mov	r0, r31
    2c5a:	f0 e1       	ldi	r31, 0x10	; 16
    2c5c:	cf 2e       	mov	r12, r31
    2c5e:	f3 e2       	ldi	r31, 0x23	; 35
    2c60:	df 2e       	mov	r13, r31
    2c62:	f0 2d       	mov	r31, r0
    2c64:	c7 01       	movw	r24, r14
    2c66:	37 dd       	rcall	.-1426   	; 0x26d6 <vListInitialise>
    2c68:	f9 e0       	ldi	r31, 0x09	; 9
    2c6a:	ef 0e       	add	r14, r31
    2c6c:	f1 1c       	adc	r15, r1
    2c6e:	ec 14       	cp	r14, r12
    2c70:	fd 04       	cpc	r15, r13
    2c72:	c1 f7       	brne	.-16     	; 0x2c64 <xTaskGenericCreate+0xf6>
    2c74:	8a ed       	ldi	r24, 0xDA	; 218
    2c76:	92 e2       	ldi	r25, 0x22	; 34
    2c78:	2e dd       	rcall	.-1444   	; 0x26d6 <vListInitialise>
    2c7a:	81 ed       	ldi	r24, 0xD1	; 209
    2c7c:	92 e2       	ldi	r25, 0x22	; 34
    2c7e:	2b dd       	rcall	.-1450   	; 0x26d6 <vListInitialise>
    2c80:	84 ec       	ldi	r24, 0xC4	; 196
    2c82:	92 e2       	ldi	r25, 0x22	; 34
    2c84:	28 dd       	rcall	.-1456   	; 0x26d6 <vListInitialise>
    2c86:	8a ed       	ldi	r24, 0xDA	; 218
    2c88:	92 e2       	ldi	r25, 0x22	; 34
    2c8a:	80 93 cf 22 	sts	0x22CF, r24
    2c8e:	90 93 d0 22 	sts	0x22D0, r25
    2c92:	81 ed       	ldi	r24, 0xD1	; 209
    2c94:	92 e2       	ldi	r25, 0x22	; 34
    2c96:	80 93 cd 22 	sts	0x22CD, r24
    2c9a:	90 93 ce 22 	sts	0x22CE, r25
    2c9e:	0f c0       	rjmp	.+30     	; 0x2cbe <xTaskGenericCreate+0x150>
    2ca0:	80 91 bf 22 	lds	r24, 0x22BF
    2ca4:	81 11       	cpse	r24, r1
    2ca6:	0b c0       	rjmp	.+22     	; 0x2cbe <xTaskGenericCreate+0x150>
    2ca8:	e0 91 10 23 	lds	r30, 0x2310
    2cac:	f0 91 11 23 	lds	r31, 0x2311
    2cb0:	86 89       	ldd	r24, Z+22	; 0x16
    2cb2:	08 17       	cp	r16, r24
    2cb4:	20 f0       	brcs	.+8      	; 0x2cbe <xTaskGenericCreate+0x150>
    2cb6:	c0 93 10 23 	sts	0x2310, r28
    2cba:	d0 93 11 23 	sts	0x2311, r29
    2cbe:	80 91 bb 22 	lds	r24, 0x22BB
    2cc2:	8f 5f       	subi	r24, 0xFF	; 255
    2cc4:	80 93 bb 22 	sts	0x22BB, r24
    2cc8:	8e 89       	ldd	r24, Y+22	; 0x16
    2cca:	90 91 c0 22 	lds	r25, 0x22C0
    2cce:	98 17       	cp	r25, r24
    2cd0:	10 f4       	brcc	.+4      	; 0x2cd6 <xTaskGenericCreate+0x168>
    2cd2:	80 93 c0 22 	sts	0x22C0, r24
    2cd6:	90 e0       	ldi	r25, 0x00	; 0
    2cd8:	9c 01       	movw	r18, r24
    2cda:	22 0f       	add	r18, r18
    2cdc:	33 1f       	adc	r19, r19
    2cde:	22 0f       	add	r18, r18
    2ce0:	33 1f       	adc	r19, r19
    2ce2:	22 0f       	add	r18, r18
    2ce4:	33 1f       	adc	r19, r19
    2ce6:	82 0f       	add	r24, r18
    2ce8:	93 1f       	adc	r25, r19
    2cea:	b5 01       	movw	r22, r10
    2cec:	8d 51       	subi	r24, 0x1D	; 29
    2cee:	9d 4d       	sbci	r25, 0xDD	; 221
    2cf0:	04 dd       	rcall	.-1528   	; 0x26fa <vListInsertEnd>
    2cf2:	0f 90       	pop	r0
    2cf4:	0f be       	out	0x3f, r0	; 63
    2cf6:	80 91 bf 22 	lds	r24, 0x22BF
    2cfa:	88 23       	and	r24, r24
    2cfc:	51 f0       	breq	.+20     	; 0x2d12 <xTaskGenericCreate+0x1a4>
    2cfe:	e0 91 10 23 	lds	r30, 0x2310
    2d02:	f0 91 11 23 	lds	r31, 0x2311
    2d06:	86 89       	ldd	r24, Z+22	; 0x16
    2d08:	80 17       	cp	r24, r16
    2d0a:	28 f4       	brcc	.+10     	; 0x2d16 <xTaskGenericCreate+0x1a8>
    2d0c:	29 de       	rcall	.-942    	; 0x2960 <vPortYield>
    2d0e:	81 e0       	ldi	r24, 0x01	; 1
    2d10:	1c c0       	rjmp	.+56     	; 0x2d4a <xTaskGenericCreate+0x1dc>
    2d12:	81 e0       	ldi	r24, 0x01	; 1
    2d14:	1a c0       	rjmp	.+52     	; 0x2d4a <xTaskGenericCreate+0x1dc>
    2d16:	81 e0       	ldi	r24, 0x01	; 1
    2d18:	18 c0       	rjmp	.+48     	; 0x2d4a <xTaskGenericCreate+0x1dc>
    2d1a:	cf 8a       	std	Y+23, r12	; 0x17
    2d1c:	d8 8e       	std	Y+24, r13	; 0x18
    2d1e:	81 e0       	ldi	r24, 0x01	; 1
    2d20:	48 1a       	sub	r4, r24
    2d22:	51 08       	sbc	r5, r1
    2d24:	cf 88       	ldd	r12, Y+23	; 0x17
    2d26:	d8 8c       	ldd	r13, Y+24	; 0x18
    2d28:	c4 0c       	add	r12, r4
    2d2a:	d5 1c       	adc	r13, r5
    2d2c:	d5 01       	movw	r26, r10
    2d2e:	8c 91       	ld	r24, X
    2d30:	89 8f       	std	Y+25, r24	; 0x19
    2d32:	8c 91       	ld	r24, X
    2d34:	88 23       	and	r24, r24
    2d36:	09 f4       	brne	.+2      	; 0x2d3a <xTaskGenericCreate+0x1cc>
    2d38:	4e cf       	rjmp	.-356    	; 0x2bd6 <xTaskGenericCreate+0x68>
    2d3a:	ae 01       	movw	r20, r28
    2d3c:	46 5e       	subi	r20, 0xE6	; 230
    2d3e:	5f 4f       	sbci	r21, 0xFF	; 255
    2d40:	f5 01       	movw	r30, r10
    2d42:	31 96       	adiw	r30, 0x01	; 1
    2d44:	27 e0       	ldi	r18, 0x07	; 7
    2d46:	3c cf       	rjmp	.-392    	; 0x2bc0 <xTaskGenericCreate+0x52>
    2d48:	8f ef       	ldi	r24, 0xFF	; 255
    2d4a:	df 91       	pop	r29
    2d4c:	cf 91       	pop	r28
    2d4e:	1f 91       	pop	r17
    2d50:	0f 91       	pop	r16
    2d52:	ff 90       	pop	r15
    2d54:	ef 90       	pop	r14
    2d56:	df 90       	pop	r13
    2d58:	cf 90       	pop	r12
    2d5a:	bf 90       	pop	r11
    2d5c:	af 90       	pop	r10
    2d5e:	9f 90       	pop	r9
    2d60:	8f 90       	pop	r8
    2d62:	7f 90       	pop	r7
    2d64:	6f 90       	pop	r6
    2d66:	5f 90       	pop	r5
    2d68:	4f 90       	pop	r4
    2d6a:	08 95       	ret

00002d6c <vTaskStartScheduler>:
    2d6c:	af 92       	push	r10
    2d6e:	bf 92       	push	r11
    2d70:	cf 92       	push	r12
    2d72:	df 92       	push	r13
    2d74:	ef 92       	push	r14
    2d76:	ff 92       	push	r15
    2d78:	0f 93       	push	r16
    2d7a:	a1 2c       	mov	r10, r1
    2d7c:	b1 2c       	mov	r11, r1
    2d7e:	c1 2c       	mov	r12, r1
    2d80:	d1 2c       	mov	r13, r1
    2d82:	e1 2c       	mov	r14, r1
    2d84:	f1 2c       	mov	r15, r1
    2d86:	00 e0       	ldi	r16, 0x00	; 0
    2d88:	20 e0       	ldi	r18, 0x00	; 0
    2d8a:	30 e0       	ldi	r19, 0x00	; 0
    2d8c:	45 e5       	ldi	r20, 0x55	; 85
    2d8e:	50 e0       	ldi	r21, 0x00	; 0
    2d90:	60 e1       	ldi	r22, 0x10	; 16
    2d92:	70 e2       	ldi	r23, 0x20	; 32
    2d94:	8a e7       	ldi	r24, 0x7A	; 122
    2d96:	95 e1       	ldi	r25, 0x15	; 21
    2d98:	ea de       	rcall	.-556    	; 0x2b6e <xTaskGenericCreate>
    2d9a:	81 30       	cpi	r24, 0x01	; 1
    2d9c:	41 f4       	brne	.+16     	; 0x2dae <vTaskStartScheduler+0x42>
    2d9e:	f8 94       	cli
    2da0:	80 93 bf 22 	sts	0x22BF, r24
    2da4:	10 92 c1 22 	sts	0x22C1, r1
    2da8:	10 92 c2 22 	sts	0x22C2, r1
    2dac:	95 dd       	rcall	.-1238   	; 0x28d8 <xPortStartScheduler>
    2dae:	0f 91       	pop	r16
    2db0:	ff 90       	pop	r15
    2db2:	ef 90       	pop	r14
    2db4:	df 90       	pop	r13
    2db6:	cf 90       	pop	r12
    2db8:	bf 90       	pop	r11
    2dba:	af 90       	pop	r10
    2dbc:	08 95       	ret

00002dbe <vTaskSuspendAll>:
    2dbe:	80 91 ba 22 	lds	r24, 0x22BA
    2dc2:	8f 5f       	subi	r24, 0xFF	; 255
    2dc4:	80 93 ba 22 	sts	0x22BA, r24
    2dc8:	08 95       	ret

00002dca <xTaskIncrementTick>:
    2dca:	df 92       	push	r13
    2dcc:	ef 92       	push	r14
    2dce:	ff 92       	push	r15
    2dd0:	0f 93       	push	r16
    2dd2:	1f 93       	push	r17
    2dd4:	cf 93       	push	r28
    2dd6:	df 93       	push	r29
    2dd8:	80 91 ba 22 	lds	r24, 0x22BA
    2ddc:	81 11       	cpse	r24, r1
    2dde:	b2 c0       	rjmp	.+356    	; 0x2f44 <xTaskIncrementTick+0x17a>
    2de0:	80 91 c1 22 	lds	r24, 0x22C1
    2de4:	90 91 c2 22 	lds	r25, 0x22C2
    2de8:	01 96       	adiw	r24, 0x01	; 1
    2dea:	80 93 c1 22 	sts	0x22C1, r24
    2dee:	90 93 c2 22 	sts	0x22C2, r25
    2df2:	e0 90 c1 22 	lds	r14, 0x22C1
    2df6:	f0 90 c2 22 	lds	r15, 0x22C2
    2dfa:	e1 14       	cp	r14, r1
    2dfc:	f1 04       	cpc	r15, r1
    2dfe:	99 f5       	brne	.+102    	; 0x2e66 <xTaskIncrementTick+0x9c>
    2e00:	80 91 cf 22 	lds	r24, 0x22CF
    2e04:	90 91 d0 22 	lds	r25, 0x22D0
    2e08:	20 91 cd 22 	lds	r18, 0x22CD
    2e0c:	30 91 ce 22 	lds	r19, 0x22CE
    2e10:	20 93 cf 22 	sts	0x22CF, r18
    2e14:	30 93 d0 22 	sts	0x22D0, r19
    2e18:	80 93 cd 22 	sts	0x22CD, r24
    2e1c:	90 93 ce 22 	sts	0x22CE, r25
    2e20:	80 91 bc 22 	lds	r24, 0x22BC
    2e24:	8f 5f       	subi	r24, 0xFF	; 255
    2e26:	80 93 bc 22 	sts	0x22BC, r24
    2e2a:	e0 91 cf 22 	lds	r30, 0x22CF
    2e2e:	f0 91 d0 22 	lds	r31, 0x22D0
    2e32:	80 81       	ld	r24, Z
    2e34:	81 11       	cpse	r24, r1
    2e36:	07 c0       	rjmp	.+14     	; 0x2e46 <xTaskIncrementTick+0x7c>
    2e38:	8f ef       	ldi	r24, 0xFF	; 255
    2e3a:	9f ef       	ldi	r25, 0xFF	; 255
    2e3c:	80 93 0e 20 	sts	0x200E, r24
    2e40:	90 93 0f 20 	sts	0x200F, r25
    2e44:	10 c0       	rjmp	.+32     	; 0x2e66 <xTaskIncrementTick+0x9c>
    2e46:	e0 91 cf 22 	lds	r30, 0x22CF
    2e4a:	f0 91 d0 22 	lds	r31, 0x22D0
    2e4e:	05 80       	ldd	r0, Z+5	; 0x05
    2e50:	f6 81       	ldd	r31, Z+6	; 0x06
    2e52:	e0 2d       	mov	r30, r0
    2e54:	06 80       	ldd	r0, Z+6	; 0x06
    2e56:	f7 81       	ldd	r31, Z+7	; 0x07
    2e58:	e0 2d       	mov	r30, r0
    2e5a:	82 81       	ldd	r24, Z+2	; 0x02
    2e5c:	93 81       	ldd	r25, Z+3	; 0x03
    2e5e:	80 93 0e 20 	sts	0x200E, r24
    2e62:	90 93 0f 20 	sts	0x200F, r25
    2e66:	80 91 0e 20 	lds	r24, 0x200E
    2e6a:	90 91 0f 20 	lds	r25, 0x200F
    2e6e:	e8 16       	cp	r14, r24
    2e70:	f9 06       	cpc	r15, r25
    2e72:	08 f4       	brcc	.+2      	; 0x2e76 <xTaskIncrementTick+0xac>
    2e74:	50 c0       	rjmp	.+160    	; 0x2f16 <xTaskIncrementTick+0x14c>
    2e76:	d1 2c       	mov	r13, r1
    2e78:	02 c0       	rjmp	.+4      	; 0x2e7e <xTaskIncrementTick+0xb4>
    2e7a:	dd 24       	eor	r13, r13
    2e7c:	d3 94       	inc	r13
    2e7e:	e0 91 cf 22 	lds	r30, 0x22CF
    2e82:	f0 91 d0 22 	lds	r31, 0x22D0
    2e86:	80 81       	ld	r24, Z
    2e88:	81 11       	cpse	r24, r1
    2e8a:	07 c0       	rjmp	.+14     	; 0x2e9a <xTaskIncrementTick+0xd0>
    2e8c:	8f ef       	ldi	r24, 0xFF	; 255
    2e8e:	9f ef       	ldi	r25, 0xFF	; 255
    2e90:	80 93 0e 20 	sts	0x200E, r24
    2e94:	90 93 0f 20 	sts	0x200F, r25
    2e98:	3f c0       	rjmp	.+126    	; 0x2f18 <xTaskIncrementTick+0x14e>
    2e9a:	e0 91 cf 22 	lds	r30, 0x22CF
    2e9e:	f0 91 d0 22 	lds	r31, 0x22D0
    2ea2:	05 80       	ldd	r0, Z+5	; 0x05
    2ea4:	f6 81       	ldd	r31, Z+6	; 0x06
    2ea6:	e0 2d       	mov	r30, r0
    2ea8:	c6 81       	ldd	r28, Z+6	; 0x06
    2eaa:	d7 81       	ldd	r29, Z+7	; 0x07
    2eac:	2a 81       	ldd	r18, Y+2	; 0x02
    2eae:	3b 81       	ldd	r19, Y+3	; 0x03
    2eb0:	e2 16       	cp	r14, r18
    2eb2:	f3 06       	cpc	r15, r19
    2eb4:	28 f4       	brcc	.+10     	; 0x2ec0 <xTaskIncrementTick+0xf6>
    2eb6:	20 93 0e 20 	sts	0x200E, r18
    2eba:	30 93 0f 20 	sts	0x200F, r19
    2ebe:	2c c0       	rjmp	.+88     	; 0x2f18 <xTaskIncrementTick+0x14e>
    2ec0:	8e 01       	movw	r16, r28
    2ec2:	0e 5f       	subi	r16, 0xFE	; 254
    2ec4:	1f 4f       	sbci	r17, 0xFF	; 255
    2ec6:	c8 01       	movw	r24, r16
    2ec8:	6a dc       	rcall	.-1836   	; 0x279e <uxListRemove>
    2eca:	8c 89       	ldd	r24, Y+20	; 0x14
    2ecc:	9d 89       	ldd	r25, Y+21	; 0x15
    2ece:	89 2b       	or	r24, r25
    2ed0:	19 f0       	breq	.+6      	; 0x2ed8 <xTaskIncrementTick+0x10e>
    2ed2:	ce 01       	movw	r24, r28
    2ed4:	0c 96       	adiw	r24, 0x0c	; 12
    2ed6:	63 dc       	rcall	.-1850   	; 0x279e <uxListRemove>
    2ed8:	2e 89       	ldd	r18, Y+22	; 0x16
    2eda:	80 91 c0 22 	lds	r24, 0x22C0
    2ede:	82 17       	cp	r24, r18
    2ee0:	10 f4       	brcc	.+4      	; 0x2ee6 <xTaskIncrementTick+0x11c>
    2ee2:	20 93 c0 22 	sts	0x22C0, r18
    2ee6:	30 e0       	ldi	r19, 0x00	; 0
    2ee8:	c9 01       	movw	r24, r18
    2eea:	88 0f       	add	r24, r24
    2eec:	99 1f       	adc	r25, r25
    2eee:	88 0f       	add	r24, r24
    2ef0:	99 1f       	adc	r25, r25
    2ef2:	88 0f       	add	r24, r24
    2ef4:	99 1f       	adc	r25, r25
    2ef6:	82 0f       	add	r24, r18
    2ef8:	93 1f       	adc	r25, r19
    2efa:	b8 01       	movw	r22, r16
    2efc:	8d 51       	subi	r24, 0x1D	; 29
    2efe:	9d 4d       	sbci	r25, 0xDD	; 221
    2f00:	fc db       	rcall	.-2056   	; 0x26fa <vListInsertEnd>
    2f02:	e0 91 10 23 	lds	r30, 0x2310
    2f06:	f0 91 11 23 	lds	r31, 0x2311
    2f0a:	9e 89       	ldd	r25, Y+22	; 0x16
    2f0c:	86 89       	ldd	r24, Z+22	; 0x16
    2f0e:	98 17       	cp	r25, r24
    2f10:	08 f0       	brcs	.+2      	; 0x2f14 <xTaskIncrementTick+0x14a>
    2f12:	b3 cf       	rjmp	.-154    	; 0x2e7a <xTaskIncrementTick+0xb0>
    2f14:	b4 cf       	rjmp	.-152    	; 0x2e7e <xTaskIncrementTick+0xb4>
    2f16:	d1 2c       	mov	r13, r1
    2f18:	e0 91 10 23 	lds	r30, 0x2310
    2f1c:	f0 91 11 23 	lds	r31, 0x2311
    2f20:	86 89       	ldd	r24, Z+22	; 0x16
    2f22:	90 e0       	ldi	r25, 0x00	; 0
    2f24:	fc 01       	movw	r30, r24
    2f26:	ee 0f       	add	r30, r30
    2f28:	ff 1f       	adc	r31, r31
    2f2a:	ee 0f       	add	r30, r30
    2f2c:	ff 1f       	adc	r31, r31
    2f2e:	ee 0f       	add	r30, r30
    2f30:	ff 1f       	adc	r31, r31
    2f32:	8e 0f       	add	r24, r30
    2f34:	9f 1f       	adc	r25, r31
    2f36:	fc 01       	movw	r30, r24
    2f38:	ed 51       	subi	r30, 0x1D	; 29
    2f3a:	fd 4d       	sbci	r31, 0xDD	; 221
    2f3c:	80 81       	ld	r24, Z
    2f3e:	82 30       	cpi	r24, 0x02	; 2
    2f40:	40 f4       	brcc	.+16     	; 0x2f52 <xTaskIncrementTick+0x188>
    2f42:	09 c0       	rjmp	.+18     	; 0x2f56 <xTaskIncrementTick+0x18c>
    2f44:	80 91 be 22 	lds	r24, 0x22BE
    2f48:	8f 5f       	subi	r24, 0xFF	; 255
    2f4a:	80 93 be 22 	sts	0x22BE, r24
    2f4e:	d1 2c       	mov	r13, r1
    2f50:	02 c0       	rjmp	.+4      	; 0x2f56 <xTaskIncrementTick+0x18c>
    2f52:	dd 24       	eor	r13, r13
    2f54:	d3 94       	inc	r13
    2f56:	80 91 bd 22 	lds	r24, 0x22BD
    2f5a:	88 23       	and	r24, r24
    2f5c:	11 f0       	breq	.+4      	; 0x2f62 <xTaskIncrementTick+0x198>
    2f5e:	dd 24       	eor	r13, r13
    2f60:	d3 94       	inc	r13
    2f62:	8d 2d       	mov	r24, r13
    2f64:	df 91       	pop	r29
    2f66:	cf 91       	pop	r28
    2f68:	1f 91       	pop	r17
    2f6a:	0f 91       	pop	r16
    2f6c:	ff 90       	pop	r15
    2f6e:	ef 90       	pop	r14
    2f70:	df 90       	pop	r13
    2f72:	08 95       	ret

00002f74 <xTaskResumeAll>:
    2f74:	df 92       	push	r13
    2f76:	ef 92       	push	r14
    2f78:	ff 92       	push	r15
    2f7a:	0f 93       	push	r16
    2f7c:	1f 93       	push	r17
    2f7e:	cf 93       	push	r28
    2f80:	df 93       	push	r29
    2f82:	0f b6       	in	r0, 0x3f	; 63
    2f84:	f8 94       	cli
    2f86:	0f 92       	push	r0
    2f88:	80 91 ba 22 	lds	r24, 0x22BA
    2f8c:	81 50       	subi	r24, 0x01	; 1
    2f8e:	80 93 ba 22 	sts	0x22BA, r24
    2f92:	80 91 ba 22 	lds	r24, 0x22BA
    2f96:	81 11       	cpse	r24, r1
    2f98:	5c c0       	rjmp	.+184    	; 0x3052 <xTaskResumeAll+0xde>
    2f9a:	80 91 c3 22 	lds	r24, 0x22C3
    2f9e:	88 23       	and	r24, r24
    2fa0:	09 f4       	brne	.+2      	; 0x2fa4 <xTaskResumeAll+0x30>
    2fa2:	59 c0       	rjmp	.+178    	; 0x3056 <xTaskResumeAll+0xe2>
    2fa4:	0f 2e       	mov	r0, r31
    2fa6:	f4 ec       	ldi	r31, 0xC4	; 196
    2fa8:	ef 2e       	mov	r14, r31
    2faa:	f2 e2       	ldi	r31, 0x22	; 34
    2fac:	ff 2e       	mov	r15, r31
    2fae:	f0 2d       	mov	r31, r0
    2fb0:	dd 24       	eor	r13, r13
    2fb2:	d3 94       	inc	r13
    2fb4:	2d c0       	rjmp	.+90     	; 0x3010 <xTaskResumeAll+0x9c>
    2fb6:	e0 91 c9 22 	lds	r30, 0x22C9
    2fba:	f0 91 ca 22 	lds	r31, 0x22CA
    2fbe:	c6 81       	ldd	r28, Z+6	; 0x06
    2fc0:	d7 81       	ldd	r29, Z+7	; 0x07
    2fc2:	ce 01       	movw	r24, r28
    2fc4:	0c 96       	adiw	r24, 0x0c	; 12
    2fc6:	eb db       	rcall	.-2090   	; 0x279e <uxListRemove>
    2fc8:	8e 01       	movw	r16, r28
    2fca:	0e 5f       	subi	r16, 0xFE	; 254
    2fcc:	1f 4f       	sbci	r17, 0xFF	; 255
    2fce:	c8 01       	movw	r24, r16
    2fd0:	e6 db       	rcall	.-2100   	; 0x279e <uxListRemove>
    2fd2:	8e 89       	ldd	r24, Y+22	; 0x16
    2fd4:	90 91 c0 22 	lds	r25, 0x22C0
    2fd8:	98 17       	cp	r25, r24
    2fda:	10 f4       	brcc	.+4      	; 0x2fe0 <xTaskResumeAll+0x6c>
    2fdc:	80 93 c0 22 	sts	0x22C0, r24
    2fe0:	90 e0       	ldi	r25, 0x00	; 0
    2fe2:	9c 01       	movw	r18, r24
    2fe4:	22 0f       	add	r18, r18
    2fe6:	33 1f       	adc	r19, r19
    2fe8:	22 0f       	add	r18, r18
    2fea:	33 1f       	adc	r19, r19
    2fec:	22 0f       	add	r18, r18
    2fee:	33 1f       	adc	r19, r19
    2ff0:	82 0f       	add	r24, r18
    2ff2:	93 1f       	adc	r25, r19
    2ff4:	b8 01       	movw	r22, r16
    2ff6:	8d 51       	subi	r24, 0x1D	; 29
    2ff8:	9d 4d       	sbci	r25, 0xDD	; 221
    2ffa:	7f db       	rcall	.-2306   	; 0x26fa <vListInsertEnd>
    2ffc:	e0 91 10 23 	lds	r30, 0x2310
    3000:	f0 91 11 23 	lds	r31, 0x2311
    3004:	9e 89       	ldd	r25, Y+22	; 0x16
    3006:	86 89       	ldd	r24, Z+22	; 0x16
    3008:	98 17       	cp	r25, r24
    300a:	10 f0       	brcs	.+4      	; 0x3010 <xTaskResumeAll+0x9c>
    300c:	d0 92 bd 22 	sts	0x22BD, r13
    3010:	f7 01       	movw	r30, r14
    3012:	80 81       	ld	r24, Z
    3014:	81 11       	cpse	r24, r1
    3016:	cf cf       	rjmp	.-98     	; 0x2fb6 <xTaskResumeAll+0x42>
    3018:	80 91 be 22 	lds	r24, 0x22BE
    301c:	88 23       	and	r24, r24
    301e:	91 f0       	breq	.+36     	; 0x3044 <xTaskResumeAll+0xd0>
    3020:	80 91 be 22 	lds	r24, 0x22BE
    3024:	88 23       	and	r24, r24
    3026:	71 f0       	breq	.+28     	; 0x3044 <xTaskResumeAll+0xd0>
    3028:	c1 e0       	ldi	r28, 0x01	; 1
    302a:	cf de       	rcall	.-610    	; 0x2dca <xTaskIncrementTick>
    302c:	81 11       	cpse	r24, r1
    302e:	c0 93 bd 22 	sts	0x22BD, r28
    3032:	80 91 be 22 	lds	r24, 0x22BE
    3036:	81 50       	subi	r24, 0x01	; 1
    3038:	80 93 be 22 	sts	0x22BE, r24
    303c:	80 91 be 22 	lds	r24, 0x22BE
    3040:	81 11       	cpse	r24, r1
    3042:	f3 cf       	rjmp	.-26     	; 0x302a <xTaskResumeAll+0xb6>
    3044:	80 91 bd 22 	lds	r24, 0x22BD
    3048:	81 30       	cpi	r24, 0x01	; 1
    304a:	39 f4       	brne	.+14     	; 0x305a <xTaskResumeAll+0xe6>
    304c:	89 dc       	rcall	.-1774   	; 0x2960 <vPortYield>
    304e:	81 e0       	ldi	r24, 0x01	; 1
    3050:	05 c0       	rjmp	.+10     	; 0x305c <xTaskResumeAll+0xe8>
    3052:	80 e0       	ldi	r24, 0x00	; 0
    3054:	03 c0       	rjmp	.+6      	; 0x305c <xTaskResumeAll+0xe8>
    3056:	80 e0       	ldi	r24, 0x00	; 0
    3058:	01 c0       	rjmp	.+2      	; 0x305c <xTaskResumeAll+0xe8>
    305a:	80 e0       	ldi	r24, 0x00	; 0
    305c:	0f 90       	pop	r0
    305e:	0f be       	out	0x3f, r0	; 63
    3060:	df 91       	pop	r29
    3062:	cf 91       	pop	r28
    3064:	1f 91       	pop	r17
    3066:	0f 91       	pop	r16
    3068:	ff 90       	pop	r15
    306a:	ef 90       	pop	r14
    306c:	df 90       	pop	r13
    306e:	08 95       	ret

00003070 <vTaskDelay>:
    3070:	cf 93       	push	r28
    3072:	df 93       	push	r29
    3074:	ec 01       	movw	r28, r24
    3076:	00 97       	sbiw	r24, 0x00	; 0
    3078:	91 f0       	breq	.+36     	; 0x309e <vTaskDelay+0x2e>
    307a:	a1 de       	rcall	.-702    	; 0x2dbe <vTaskSuspendAll>
    307c:	80 91 c1 22 	lds	r24, 0x22C1
    3080:	90 91 c2 22 	lds	r25, 0x22C2
    3084:	c8 0f       	add	r28, r24
    3086:	d9 1f       	adc	r29, r25
    3088:	80 91 10 23 	lds	r24, 0x2310
    308c:	90 91 11 23 	lds	r25, 0x2311
    3090:	02 96       	adiw	r24, 0x02	; 2
    3092:	85 db       	rcall	.-2294   	; 0x279e <uxListRemove>
    3094:	ce 01       	movw	r24, r28
    3096:	36 dd       	rcall	.-1428   	; 0x2b04 <prvAddCurrentTaskToDelayedList>
    3098:	6d df       	rcall	.-294    	; 0x2f74 <xTaskResumeAll>
    309a:	81 11       	cpse	r24, r1
    309c:	01 c0       	rjmp	.+2      	; 0x30a0 <vTaskDelay+0x30>
    309e:	60 dc       	rcall	.-1856   	; 0x2960 <vPortYield>
    30a0:	df 91       	pop	r29
    30a2:	cf 91       	pop	r28
    30a4:	08 95       	ret

000030a6 <vTaskSwitchContext>:
    30a6:	80 91 ba 22 	lds	r24, 0x22BA
    30aa:	88 23       	and	r24, r24
    30ac:	21 f0       	breq	.+8      	; 0x30b6 <vTaskSwitchContext+0x10>
    30ae:	81 e0       	ldi	r24, 0x01	; 1
    30b0:	80 93 bd 22 	sts	0x22BD, r24
    30b4:	08 95       	ret
    30b6:	10 92 bd 22 	sts	0x22BD, r1
    30ba:	80 91 c0 22 	lds	r24, 0x22C0
    30be:	90 e0       	ldi	r25, 0x00	; 0
    30c0:	fc 01       	movw	r30, r24
    30c2:	ee 0f       	add	r30, r30
    30c4:	ff 1f       	adc	r31, r31
    30c6:	ee 0f       	add	r30, r30
    30c8:	ff 1f       	adc	r31, r31
    30ca:	ee 0f       	add	r30, r30
    30cc:	ff 1f       	adc	r31, r31
    30ce:	8e 0f       	add	r24, r30
    30d0:	9f 1f       	adc	r25, r31
    30d2:	fc 01       	movw	r30, r24
    30d4:	ed 51       	subi	r30, 0x1D	; 29
    30d6:	fd 4d       	sbci	r31, 0xDD	; 221
    30d8:	80 81       	ld	r24, Z
    30da:	81 11       	cpse	r24, r1
    30dc:	17 c0       	rjmp	.+46     	; 0x310c <vTaskSwitchContext+0x66>
    30de:	80 91 c0 22 	lds	r24, 0x22C0
    30e2:	81 50       	subi	r24, 0x01	; 1
    30e4:	80 93 c0 22 	sts	0x22C0, r24
    30e8:	80 91 c0 22 	lds	r24, 0x22C0
    30ec:	90 e0       	ldi	r25, 0x00	; 0
    30ee:	fc 01       	movw	r30, r24
    30f0:	ee 0f       	add	r30, r30
    30f2:	ff 1f       	adc	r31, r31
    30f4:	ee 0f       	add	r30, r30
    30f6:	ff 1f       	adc	r31, r31
    30f8:	ee 0f       	add	r30, r30
    30fa:	ff 1f       	adc	r31, r31
    30fc:	8e 0f       	add	r24, r30
    30fe:	9f 1f       	adc	r25, r31
    3100:	fc 01       	movw	r30, r24
    3102:	ed 51       	subi	r30, 0x1D	; 29
    3104:	fd 4d       	sbci	r31, 0xDD	; 221
    3106:	80 81       	ld	r24, Z
    3108:	88 23       	and	r24, r24
    310a:	49 f3       	breq	.-46     	; 0x30de <vTaskSwitchContext+0x38>
    310c:	e0 91 c0 22 	lds	r30, 0x22C0
    3110:	f0 e0       	ldi	r31, 0x00	; 0
    3112:	cf 01       	movw	r24, r30
    3114:	88 0f       	add	r24, r24
    3116:	99 1f       	adc	r25, r25
    3118:	88 0f       	add	r24, r24
    311a:	99 1f       	adc	r25, r25
    311c:	88 0f       	add	r24, r24
    311e:	99 1f       	adc	r25, r25
    3120:	e8 0f       	add	r30, r24
    3122:	f9 1f       	adc	r31, r25
    3124:	ed 51       	subi	r30, 0x1D	; 29
    3126:	fd 4d       	sbci	r31, 0xDD	; 221
    3128:	a1 81       	ldd	r26, Z+1	; 0x01
    312a:	b2 81       	ldd	r27, Z+2	; 0x02
    312c:	12 96       	adiw	r26, 0x02	; 2
    312e:	0d 90       	ld	r0, X+
    3130:	bc 91       	ld	r27, X
    3132:	a0 2d       	mov	r26, r0
    3134:	a1 83       	std	Z+1, r26	; 0x01
    3136:	b2 83       	std	Z+2, r27	; 0x02
    3138:	cf 01       	movw	r24, r30
    313a:	03 96       	adiw	r24, 0x03	; 3
    313c:	a8 17       	cp	r26, r24
    313e:	b9 07       	cpc	r27, r25
    3140:	31 f4       	brne	.+12     	; 0x314e <vTaskSwitchContext+0xa8>
    3142:	12 96       	adiw	r26, 0x02	; 2
    3144:	8d 91       	ld	r24, X+
    3146:	9c 91       	ld	r25, X
    3148:	13 97       	sbiw	r26, 0x03	; 3
    314a:	81 83       	std	Z+1, r24	; 0x01
    314c:	92 83       	std	Z+2, r25	; 0x02
    314e:	01 80       	ldd	r0, Z+1	; 0x01
    3150:	f2 81       	ldd	r31, Z+2	; 0x02
    3152:	e0 2d       	mov	r30, r0
    3154:	86 81       	ldd	r24, Z+6	; 0x06
    3156:	97 81       	ldd	r25, Z+7	; 0x07
    3158:	80 93 10 23 	sts	0x2310, r24
    315c:	90 93 11 23 	sts	0x2311, r25
    3160:	08 95       	ret

00003162 <sysclk_init>:
    3162:	8f ef       	ldi	r24, 0xFF	; 255
    3164:	80 93 70 00 	sts	0x0070, r24
    3168:	80 93 71 00 	sts	0x0071, r24
    316c:	80 93 72 00 	sts	0x0072, r24
    3170:	80 93 73 00 	sts	0x0073, r24
    3174:	80 93 74 00 	sts	0x0074, r24
    3178:	80 93 75 00 	sts	0x0075, r24
    317c:	80 93 76 00 	sts	0x0076, r24
    3180:	8f b7       	in	r24, 0x3f	; 63
    3182:	f8 94       	cli
    3184:	e0 e5       	ldi	r30, 0x50	; 80
    3186:	f0 e0       	ldi	r31, 0x00	; 0
    3188:	90 81       	ld	r25, Z
    318a:	92 60       	ori	r25, 0x02	; 2
    318c:	90 83       	st	Z, r25
    318e:	8f bf       	out	0x3f, r24	; 63
    3190:	81 81       	ldd	r24, Z+1	; 0x01
    3192:	81 ff       	sbrs	r24, 1
    3194:	fd cf       	rjmp	.-6      	; 0x3190 <sysclk_init+0x2e>
    3196:	61 e0       	ldi	r22, 0x01	; 1
    3198:	80 e4       	ldi	r24, 0x40	; 64
    319a:	90 e0       	ldi	r25, 0x00	; 0
    319c:	84 d0       	rcall	.+264    	; 0x32a6 <ccp_write_io>
    319e:	8f b7       	in	r24, 0x3f	; 63
    31a0:	f8 94       	cli
    31a2:	e0 e5       	ldi	r30, 0x50	; 80
    31a4:	f0 e0       	ldi	r31, 0x00	; 0
    31a6:	90 81       	ld	r25, Z
    31a8:	9e 7f       	andi	r25, 0xFE	; 254
    31aa:	90 83       	st	Z, r25
    31ac:	8f bf       	out	0x3f, r24	; 63
    31ae:	08 95       	ret

000031b0 <sysclk_enable_module>:
    31b0:	9f b7       	in	r25, 0x3f	; 63
    31b2:	f8 94       	cli
    31b4:	e8 2f       	mov	r30, r24
    31b6:	f0 e0       	ldi	r31, 0x00	; 0
    31b8:	e0 59       	subi	r30, 0x90	; 144
    31ba:	ff 4f       	sbci	r31, 0xFF	; 255
    31bc:	60 95       	com	r22
    31be:	80 81       	ld	r24, Z
    31c0:	68 23       	and	r22, r24
    31c2:	60 83       	st	Z, r22
    31c4:	9f bf       	out	0x3f, r25	; 63
    31c6:	08 95       	ret

000031c8 <sysclk_disable_module>:
    31c8:	9f b7       	in	r25, 0x3f	; 63
    31ca:	f8 94       	cli
    31cc:	e8 2f       	mov	r30, r24
    31ce:	f0 e0       	ldi	r31, 0x00	; 0
    31d0:	e0 59       	subi	r30, 0x90	; 144
    31d2:	ff 4f       	sbci	r31, 0xFF	; 255
    31d4:	80 81       	ld	r24, Z
    31d6:	68 2b       	or	r22, r24
    31d8:	60 83       	st	Z, r22
    31da:	9f bf       	out	0x3f, r25	; 63
    31dc:	08 95       	ret

000031de <nvm_eeprom_read_byte>:
    31de:	e0 ec       	ldi	r30, 0xC0	; 192
    31e0:	f1 e0       	ldi	r31, 0x01	; 1
    31e2:	27 85       	ldd	r18, Z+15	; 0x0f
    31e4:	22 23       	and	r18, r18
    31e6:	ec f3       	brlt	.-6      	; 0x31e2 <nvm_eeprom_read_byte+0x4>
    31e8:	ec ec       	ldi	r30, 0xCC	; 204
    31ea:	f1 e0       	ldi	r31, 0x01	; 1
    31ec:	20 81       	ld	r18, Z
    31ee:	28 60       	ori	r18, 0x08	; 8
    31f0:	20 83       	st	Z, r18
    31f2:	dc 01       	movw	r26, r24
    31f4:	b0 5f       	subi	r27, 0xF0	; 240
    31f6:	8c 91       	ld	r24, X
    31f8:	90 81       	ld	r25, Z
    31fa:	97 7f       	andi	r25, 0xF7	; 247
    31fc:	90 83       	st	Z, r25
    31fe:	08 95       	ret

00003200 <nvm_eeprom_flush_buffer>:
    3200:	e0 ec       	ldi	r30, 0xC0	; 192
    3202:	f1 e0       	ldi	r31, 0x01	; 1
    3204:	87 85       	ldd	r24, Z+15	; 0x0f
    3206:	88 23       	and	r24, r24
    3208:	ec f3       	brlt	.-6      	; 0x3204 <nvm_eeprom_flush_buffer+0x4>
    320a:	e0 ec       	ldi	r30, 0xC0	; 192
    320c:	f1 e0       	ldi	r31, 0x01	; 1
    320e:	87 85       	ldd	r24, Z+15	; 0x0f
    3210:	81 ff       	sbrs	r24, 1
    3212:	06 c0       	rjmp	.+12     	; 0x3220 <nvm_eeprom_flush_buffer+0x20>
    3214:	86 e3       	ldi	r24, 0x36	; 54
    3216:	82 87       	std	Z+10, r24	; 0x0a
    3218:	61 e0       	ldi	r22, 0x01	; 1
    321a:	8b ec       	ldi	r24, 0xCB	; 203
    321c:	91 e0       	ldi	r25, 0x01	; 1
    321e:	43 c0       	rjmp	.+134    	; 0x32a6 <ccp_write_io>
    3220:	08 95       	ret

00003222 <nvm_eeprom_load_byte_to_buffer>:
    3222:	e0 ec       	ldi	r30, 0xC0	; 192
    3224:	f1 e0       	ldi	r31, 0x01	; 1
    3226:	97 85       	ldd	r25, Z+15	; 0x0f
    3228:	99 23       	and	r25, r25
    322a:	ec f3       	brlt	.-6      	; 0x3226 <nvm_eeprom_load_byte_to_buffer+0x4>
    322c:	ec ec       	ldi	r30, 0xCC	; 204
    322e:	f1 e0       	ldi	r31, 0x01	; 1
    3230:	90 81       	ld	r25, Z
    3232:	98 60       	ori	r25, 0x08	; 8
    3234:	90 83       	st	Z, r25
    3236:	a8 2f       	mov	r26, r24
    3238:	b0 e0       	ldi	r27, 0x00	; 0
    323a:	b0 5f       	subi	r27, 0xF0	; 240
    323c:	6c 93       	st	X, r22
    323e:	80 81       	ld	r24, Z
    3240:	87 7f       	andi	r24, 0xF7	; 247
    3242:	80 83       	st	Z, r24
    3244:	08 95       	ret

00003246 <nvm_eeprom_write_byte>:
    3246:	ff 92       	push	r15
    3248:	0f 93       	push	r16
    324a:	1f 93       	push	r17
    324c:	cf 93       	push	r28
    324e:	df 93       	push	r29
    3250:	18 2f       	mov	r17, r24
    3252:	f9 2e       	mov	r15, r25
    3254:	c6 2f       	mov	r28, r22
    3256:	e0 ec       	ldi	r30, 0xC0	; 192
    3258:	f1 e0       	ldi	r31, 0x01	; 1
    325a:	02 85       	ldd	r16, Z+10	; 0x0a
    325c:	d1 df       	rcall	.-94     	; 0x3200 <nvm_eeprom_flush_buffer>
    325e:	e0 ec       	ldi	r30, 0xC0	; 192
    3260:	f1 e0       	ldi	r31, 0x01	; 1
    3262:	27 85       	ldd	r18, Z+15	; 0x0f
    3264:	22 23       	and	r18, r18
    3266:	ec f3       	brlt	.-6      	; 0x3262 <nvm_eeprom_write_byte+0x1c>
    3268:	6c 2f       	mov	r22, r28
    326a:	81 2f       	mov	r24, r17
    326c:	da df       	rcall	.-76     	; 0x3222 <nvm_eeprom_load_byte_to_buffer>
    326e:	c0 ec       	ldi	r28, 0xC0	; 192
    3270:	d1 e0       	ldi	r29, 0x01	; 1
    3272:	1a 82       	std	Y+2, r1	; 0x02
    3274:	f9 82       	std	Y+1, r15	; 0x01
    3276:	18 83       	st	Y, r17
    3278:	85 e3       	ldi	r24, 0x35	; 53
    327a:	8a 87       	std	Y+10, r24	; 0x0a
    327c:	61 e0       	ldi	r22, 0x01	; 1
    327e:	8b ec       	ldi	r24, 0xCB	; 203
    3280:	91 e0       	ldi	r25, 0x01	; 1
    3282:	11 d0       	rcall	.+34     	; 0x32a6 <ccp_write_io>
    3284:	0a 87       	std	Y+10, r16	; 0x0a
    3286:	df 91       	pop	r29
    3288:	cf 91       	pop	r28
    328a:	1f 91       	pop	r17
    328c:	0f 91       	pop	r16
    328e:	ff 90       	pop	r15
    3290:	08 95       	ret

00003292 <nvm_read_byte>:
    3292:	40 91 ca 01 	lds	r20, 0x01CA
    3296:	e6 2f       	mov	r30, r22
    3298:	f7 2f       	mov	r31, r23
    329a:	80 93 ca 01 	sts	0x01CA, r24
    329e:	84 91       	lpm	r24, Z
    32a0:	40 93 ca 01 	sts	0x01CA, r20
    32a4:	08 95       	ret

000032a6 <ccp_write_io>:
    32a6:	1b be       	out	0x3b, r1	; 59
    32a8:	fc 01       	movw	r30, r24
    32aa:	28 ed       	ldi	r18, 0xD8	; 216
    32ac:	24 bf       	out	0x34, r18	; 52
    32ae:	60 83       	st	Z, r22
    32b0:	08 95       	ret

000032b2 <ioport_configure_port_pin>:
    32b2:	cf 93       	push	r28
    32b4:	df 93       	push	r29
    32b6:	fc 01       	movw	r30, r24
    32b8:	70 96       	adiw	r30, 0x10	; 16
    32ba:	20 e0       	ldi	r18, 0x00	; 0
    32bc:	30 e0       	ldi	r19, 0x00	; 0
    32be:	c6 2f       	mov	r28, r22
    32c0:	d0 e0       	ldi	r29, 0x00	; 0
    32c2:	de 01       	movw	r26, r28
    32c4:	02 2e       	mov	r0, r18
    32c6:	02 c0       	rjmp	.+4      	; 0x32cc <ioport_configure_port_pin+0x1a>
    32c8:	b5 95       	asr	r27
    32ca:	a7 95       	ror	r26
    32cc:	0a 94       	dec	r0
    32ce:	e2 f7       	brpl	.-8      	; 0x32c8 <ioport_configure_port_pin+0x16>
    32d0:	a0 fd       	sbrc	r26, 0
    32d2:	50 83       	st	Z, r21
    32d4:	2f 5f       	subi	r18, 0xFF	; 255
    32d6:	3f 4f       	sbci	r19, 0xFF	; 255
    32d8:	31 96       	adiw	r30, 0x01	; 1
    32da:	28 30       	cpi	r18, 0x08	; 8
    32dc:	31 05       	cpc	r19, r1
    32de:	89 f7       	brne	.-30     	; 0x32c2 <ioport_configure_port_pin+0x10>
    32e0:	40 ff       	sbrs	r20, 0
    32e2:	0a c0       	rjmp	.+20     	; 0x32f8 <ioport_configure_port_pin+0x46>
    32e4:	41 ff       	sbrs	r20, 1
    32e6:	03 c0       	rjmp	.+6      	; 0x32ee <ioport_configure_port_pin+0x3c>
    32e8:	fc 01       	movw	r30, r24
    32ea:	65 83       	std	Z+5, r22	; 0x05
    32ec:	02 c0       	rjmp	.+4      	; 0x32f2 <ioport_configure_port_pin+0x40>
    32ee:	fc 01       	movw	r30, r24
    32f0:	66 83       	std	Z+6, r22	; 0x06
    32f2:	fc 01       	movw	r30, r24
    32f4:	61 83       	std	Z+1, r22	; 0x01
    32f6:	02 c0       	rjmp	.+4      	; 0x32fc <ioport_configure_port_pin+0x4a>
    32f8:	fc 01       	movw	r30, r24
    32fa:	62 83       	std	Z+2, r22	; 0x02
    32fc:	df 91       	pop	r29
    32fe:	cf 91       	pop	r28
    3300:	08 95       	ret

00003302 <board_init>:
    3302:	43 e0       	ldi	r20, 0x03	; 3
    3304:	50 e0       	ldi	r21, 0x00	; 0
    3306:	61 e0       	ldi	r22, 0x01	; 1
    3308:	80 ee       	ldi	r24, 0xE0	; 224
    330a:	97 e0       	ldi	r25, 0x07	; 7
    330c:	d2 df       	rcall	.-92     	; 0x32b2 <ioport_configure_port_pin>
    330e:	43 e0       	ldi	r20, 0x03	; 3
    3310:	50 e0       	ldi	r21, 0x00	; 0
    3312:	62 e0       	ldi	r22, 0x02	; 2
    3314:	80 ee       	ldi	r24, 0xE0	; 224
    3316:	97 e0       	ldi	r25, 0x07	; 7
    3318:	cc df       	rcall	.-104    	; 0x32b2 <ioport_configure_port_pin>
    331a:	43 e0       	ldi	r20, 0x03	; 3
    331c:	50 e0       	ldi	r21, 0x00	; 0
    331e:	60 e1       	ldi	r22, 0x10	; 16
    3320:	80 e6       	ldi	r24, 0x60	; 96
    3322:	96 e0       	ldi	r25, 0x06	; 6
    3324:	c6 df       	rcall	.-116    	; 0x32b2 <ioport_configure_port_pin>
    3326:	41 e0       	ldi	r20, 0x01	; 1
    3328:	50 e4       	ldi	r21, 0x40	; 64
    332a:	60 e2       	ldi	r22, 0x20	; 32
    332c:	80 e6       	ldi	r24, 0x60	; 96
    332e:	96 e0       	ldi	r25, 0x06	; 6
    3330:	c0 df       	rcall	.-128    	; 0x32b2 <ioport_configure_port_pin>
    3332:	40 e0       	ldi	r20, 0x00	; 0
    3334:	5b e1       	ldi	r21, 0x1B	; 27
    3336:	60 e2       	ldi	r22, 0x20	; 32
    3338:	80 e8       	ldi	r24, 0x80	; 128
    333a:	96 e0       	ldi	r25, 0x06	; 6
    333c:	ba df       	rcall	.-140    	; 0x32b2 <ioport_configure_port_pin>
    333e:	40 e0       	ldi	r20, 0x00	; 0
    3340:	5b e1       	ldi	r21, 0x1B	; 27
    3342:	62 e0       	ldi	r22, 0x02	; 2
    3344:	80 ea       	ldi	r24, 0xA0	; 160
    3346:	96 e0       	ldi	r25, 0x06	; 6
    3348:	b4 df       	rcall	.-152    	; 0x32b2 <ioport_configure_port_pin>
    334a:	40 e0       	ldi	r20, 0x00	; 0
    334c:	5b e1       	ldi	r21, 0x1B	; 27
    334e:	64 e0       	ldi	r22, 0x04	; 4
    3350:	80 ea       	ldi	r24, 0xA0	; 160
    3352:	96 e0       	ldi	r25, 0x06	; 6
    3354:	ae df       	rcall	.-164    	; 0x32b2 <ioport_configure_port_pin>
    3356:	43 e0       	ldi	r20, 0x03	; 3
    3358:	50 e0       	ldi	r21, 0x00	; 0
    335a:	62 e0       	ldi	r22, 0x02	; 2
    335c:	80 e6       	ldi	r24, 0x60	; 96
    335e:	96 e0       	ldi	r25, 0x06	; 6
    3360:	a8 df       	rcall	.-176    	; 0x32b2 <ioport_configure_port_pin>
    3362:	43 e0       	ldi	r20, 0x03	; 3
    3364:	50 e0       	ldi	r21, 0x00	; 0
    3366:	68 e0       	ldi	r22, 0x08	; 8
    3368:	80 e6       	ldi	r24, 0x60	; 96
    336a:	96 e0       	ldi	r25, 0x06	; 6
    336c:	a2 df       	rcall	.-188    	; 0x32b2 <ioport_configure_port_pin>
    336e:	43 e0       	ldi	r20, 0x03	; 3
    3370:	50 e0       	ldi	r21, 0x00	; 0
    3372:	68 e0       	ldi	r22, 0x08	; 8
    3374:	80 ea       	ldi	r24, 0xA0	; 160
    3376:	96 e0       	ldi	r25, 0x06	; 6
    3378:	9c df       	rcall	.-200    	; 0x32b2 <ioport_configure_port_pin>
    337a:	43 e0       	ldi	r20, 0x03	; 3
    337c:	50 e0       	ldi	r21, 0x00	; 0
    337e:	61 e0       	ldi	r22, 0x01	; 1
    3380:	80 e6       	ldi	r24, 0x60	; 96
    3382:	96 e0       	ldi	r25, 0x06	; 6
    3384:	96 df       	rcall	.-212    	; 0x32b2 <ioport_configure_port_pin>
    3386:	43 e0       	ldi	r20, 0x03	; 3
    3388:	50 e0       	ldi	r21, 0x00	; 0
    338a:	68 e0       	ldi	r22, 0x08	; 8
    338c:	80 e0       	ldi	r24, 0x00	; 0
    338e:	96 e0       	ldi	r25, 0x06	; 6
    3390:	90 df       	rcall	.-224    	; 0x32b2 <ioport_configure_port_pin>
    3392:	41 e0       	ldi	r20, 0x01	; 1
    3394:	50 e0       	ldi	r21, 0x00	; 0
    3396:	60 e1       	ldi	r22, 0x10	; 16
    3398:	80 e8       	ldi	r24, 0x80	; 128
    339a:	96 e0       	ldi	r25, 0x06	; 6
    339c:	8a cf       	rjmp	.-236    	; 0x32b2 <ioport_configure_port_pin>
    339e:	08 95       	ret

000033a0 <vLCD>:
	for (page = 0; page < GFX_MONO_LCD_PAGES; page++) {
		for (column = 0; column < GFX_MONO_LCD_WIDTH; column++) {
			gfx_mono_put_byte(page, column, 0x00);
		}
	}
}
    33a0:	27 e0       	ldi	r18, 0x07	; 7
    33a2:	30 e2       	ldi	r19, 0x20	; 32
    33a4:	40 e1       	ldi	r20, 0x10	; 16
    33a6:	60 e0       	ldi	r22, 0x00	; 0
    33a8:	85 e1       	ldi	r24, 0x15	; 21
    33aa:	90 e2       	ldi	r25, 0x20	; 32
    33ac:	6b d9       	rcall	.-3370   	; 0x2684 <gfx_mono_draw_string>
    33ae:	27 e0       	ldi	r18, 0x07	; 7
    33b0:	30 e2       	ldi	r19, 0x20	; 32
    33b2:	48 e1       	ldi	r20, 0x18	; 24
    33b4:	60 e0       	ldi	r22, 0x00	; 0
    33b6:	80 e2       	ldi	r24, 0x20	; 32
    33b8:	90 e2       	ldi	r25, 0x20	; 32
    33ba:	64 d9       	rcall	.-3384   	; 0x2684 <gfx_mono_draw_string>
    33bc:	27 e0       	ldi	r18, 0x07	; 7
    33be:	30 e2       	ldi	r19, 0x20	; 32
    33c0:	48 e0       	ldi	r20, 0x08	; 8
    33c2:	60 e0       	ldi	r22, 0x00	; 0
    33c4:	8b e2       	ldi	r24, 0x2B	; 43
    33c6:	90 e2       	ldi	r25, 0x20	; 32
    33c8:	5d d9       	rcall	.-3398   	; 0x2684 <gfx_mono_draw_string>
    33ca:	27 e0       	ldi	r18, 0x07	; 7
    33cc:	30 e2       	ldi	r19, 0x20	; 32
    33ce:	40 e0       	ldi	r20, 0x00	; 0
    33d0:	60 e0       	ldi	r22, 0x00	; 0
    33d2:	86 e3       	ldi	r24, 0x36	; 54
    33d4:	90 e2       	ldi	r25, 0x20	; 32
    33d6:	56 d9       	rcall	.-3412   	; 0x2684 <gfx_mono_draw_string>
    33d8:	03 e5       	ldi	r16, 0x53	; 83
    33da:	10 e2       	ldi	r17, 0x20	; 32
    33dc:	0f 2e       	mov	r0, r31
    33de:	f9 ec       	ldi	r31, 0xC9	; 201
    33e0:	ff 2e       	mov	r15, r31
    33e2:	f0 2d       	mov	r31, r0
    33e4:	cc e1       	ldi	r28, 0x1C	; 28
    33e6:	d3 e2       	ldi	r29, 0x23	; 35
    33e8:	80 91 1a 23 	lds	r24, 0x231A
    33ec:	90 91 1b 23 	lds	r25, 0x231B
    33f0:	01 97       	sbiw	r24, 0x01	; 1
    33f2:	39 f4       	brne	.+14     	; 0x3402 <vLCD+0x62>
    33f4:	27 e0       	ldi	r18, 0x07	; 7
    33f6:	30 e2       	ldi	r19, 0x20	; 32
    33f8:	48 e0       	ldi	r20, 0x08	; 8
    33fa:	6c e3       	ldi	r22, 0x3C	; 60
    33fc:	81 e4       	ldi	r24, 0x41	; 65
    33fe:	90 e2       	ldi	r25, 0x20	; 32
    3400:	41 d9       	rcall	.-3454   	; 0x2684 <gfx_mono_draw_string>
    3402:	80 91 1a 23 	lds	r24, 0x231A
    3406:	90 91 1b 23 	lds	r25, 0x231B
    340a:	89 2b       	or	r24, r25
    340c:	39 f4       	brne	.+14     	; 0x341c <vLCD+0x7c>
    340e:	27 e0       	ldi	r18, 0x07	; 7
    3410:	30 e2       	ldi	r19, 0x20	; 32
    3412:	48 e0       	ldi	r20, 0x08	; 8
    3414:	6c e3       	ldi	r22, 0x3C	; 60
    3416:	8a e4       	ldi	r24, 0x4A	; 74
    3418:	90 e2       	ldi	r25, 0x20	; 32
    341a:	34 d9       	rcall	.-3480   	; 0x2684 <gfx_mono_draw_string>
    341c:	27 e0       	ldi	r18, 0x07	; 7
    341e:	30 e2       	ldi	r19, 0x20	; 32
    3420:	40 e1       	ldi	r20, 0x10	; 16
    3422:	6c e3       	ldi	r22, 0x3C	; 60
    3424:	80 91 18 23 	lds	r24, 0x2318
    3428:	90 91 19 23 	lds	r25, 0x2319
    342c:	2b d9       	rcall	.-3498   	; 0x2684 <gfx_mono_draw_string>
    342e:	80 91 13 23 	lds	r24, 0x2313
    3432:	8f 93       	push	r24
    3434:	80 91 12 23 	lds	r24, 0x2312
    3438:	8f 93       	push	r24
    343a:	1f 93       	push	r17
    343c:	0f 93       	push	r16
    343e:	1f 92       	push	r1
    3440:	ff 92       	push	r15
    3442:	df 93       	push	r29
    3444:	cf 93       	push	r28
    3446:	12 d3       	rcall	.+1572   	; 0x3a6c <snprintf>
    3448:	27 e0       	ldi	r18, 0x07	; 7
    344a:	30 e2       	ldi	r19, 0x20	; 32
    344c:	48 e1       	ldi	r20, 0x18	; 24
    344e:	6c e3       	ldi	r22, 0x3C	; 60
    3450:	ce 01       	movw	r24, r28
    3452:	18 d9       	rcall	.-3536   	; 0x2684 <gfx_mono_draw_string>
    3454:	80 91 17 23 	lds	r24, 0x2317
    3458:	8f 93       	push	r24
    345a:	80 91 16 23 	lds	r24, 0x2316
    345e:	8f 93       	push	r24
    3460:	1f 93       	push	r17
    3462:	0f 93       	push	r16
    3464:	1f 92       	push	r1
    3466:	ff 92       	push	r15
    3468:	df 93       	push	r29
    346a:	cf 93       	push	r28
    346c:	ff d2       	rcall	.+1534   	; 0x3a6c <snprintf>
    346e:	27 e0       	ldi	r18, 0x07	; 7
    3470:	30 e2       	ldi	r19, 0x20	; 32
    3472:	40 e0       	ldi	r20, 0x00	; 0
    3474:	6c e3       	ldi	r22, 0x3C	; 60
    3476:	ce 01       	movw	r24, r28
    3478:	05 d9       	rcall	.-3574   	; 0x2684 <gfx_mono_draw_string>
    347a:	81 e0       	ldi	r24, 0x01	; 1
    347c:	90 e0       	ldi	r25, 0x00	; 0
    347e:	f8 dd       	rcall	.-1040   	; 0x3070 <vTaskDelay>
    3480:	8d b7       	in	r24, 0x3d	; 61
    3482:	9e b7       	in	r25, 0x3e	; 62
    3484:	40 96       	adiw	r24, 0x10	; 16
    3486:	8d bf       	out	0x3d, r24	; 61
    3488:	9e bf       	out	0x3e, r25	; 62
    348a:	ae cf       	rjmp	.-164    	; 0x33e8 <vLCD+0x48>

0000348c <countWaterUsage>:
    348c:	02 e1       	ldi	r16, 0x12	; 18
    348e:	13 e2       	ldi	r17, 0x23	; 35
    3490:	c6 e1       	ldi	r28, 0x16	; 22
    3492:	d3 e2       	ldi	r29, 0x23	; 35
    3494:	80 91 1a 23 	lds	r24, 0x231A
    3498:	90 91 1b 23 	lds	r25, 0x231B
    349c:	01 97       	sbiw	r24, 0x01	; 1
    349e:	79 f4       	brne	.+30     	; 0x34be <countWaterUsage+0x32>
    34a0:	f8 01       	movw	r30, r16
    34a2:	60 81       	ld	r22, Z
    34a4:	88 81       	ld	r24, Y
    34a6:	68 0f       	add	r22, r24
    34a8:	81 e0       	ldi	r24, 0x01	; 1
    34aa:	90 e0       	ldi	r25, 0x00	; 0
    34ac:	cc de       	rcall	.-616    	; 0x3246 <nvm_eeprom_write_byte>
    34ae:	81 e0       	ldi	r24, 0x01	; 1
    34b0:	90 e0       	ldi	r25, 0x00	; 0
    34b2:	95 de       	rcall	.-726    	; 0x31de <nvm_eeprom_read_byte>
    34b4:	90 e0       	ldi	r25, 0x00	; 0
    34b6:	80 93 16 23 	sts	0x2316, r24
    34ba:	90 93 17 23 	sts	0x2317, r25
    34be:	85 e0       	ldi	r24, 0x05	; 5
    34c0:	90 e0       	ldi	r25, 0x00	; 0
    34c2:	d6 dd       	rcall	.-1108   	; 0x3070 <vTaskDelay>
    34c4:	e7 cf       	rjmp	.-50     	; 0x3494 <countWaterUsage+0x8>

000034c6 <setWaterDebit>:
    34c6:	c0 e0       	ldi	r28, 0x00	; 0
    34c8:	d2 e0       	ldi	r29, 0x02	; 2
    34ca:	11 e0       	ldi	r17, 0x01	; 1
    34cc:	ce 01       	movw	r24, r28
    34ce:	0e 94 35 0c 	call	0x186a	; 0x186a <adc_enable>
    34d2:	8f b7       	in	r24, 0x3f	; 63
    34d4:	f8 94       	cli
    34d6:	98 81       	ld	r25, Y
    34d8:	94 60       	ori	r25, 0x04	; 4
    34da:	98 83       	st	Y, r25
    34dc:	8f bf       	out	0x3f, r24	; 63
    34de:	8e 81       	ldd	r24, Y+6	; 0x06
    34e0:	80 ff       	sbrs	r24, 0
    34e2:	fd cf       	rjmp	.-6      	; 0x34de <setWaterDebit+0x18>
    34e4:	1e 83       	std	Y+6, r17	; 0x06
    34e6:	2c a1       	ldd	r18, Y+36	; 0x24
    34e8:	3d a1       	ldd	r19, Y+37	; 0x25
    34ea:	36 95       	lsr	r19
    34ec:	27 95       	ror	r18
    34ee:	36 95       	lsr	r19
    34f0:	27 95       	ror	r18
    34f2:	36 95       	lsr	r19
    34f4:	27 95       	ror	r18
    34f6:	a5 ec       	ldi	r26, 0xC5	; 197
    34f8:	b0 e2       	ldi	r27, 0x20	; 32
    34fa:	51 d1       	rcall	.+674    	; 0x379e <__umulhisi3>
    34fc:	92 95       	swap	r25
    34fe:	82 95       	swap	r24
    3500:	8f 70       	andi	r24, 0x0F	; 15
    3502:	89 27       	eor	r24, r25
    3504:	9f 70       	andi	r25, 0x0F	; 15
    3506:	89 27       	eor	r24, r25
    3508:	80 93 12 23 	sts	0x2312, r24
    350c:	90 93 13 23 	sts	0x2313, r25
    3510:	85 e0       	ldi	r24, 0x05	; 5
    3512:	90 e0       	ldi	r25, 0x00	; 0
    3514:	ad dd       	rcall	.-1190   	; 0x3070 <vTaskDelay>
    3516:	da cf       	rjmp	.-76     	; 0x34cc <setWaterDebit+0x6>

00003518 <setMaxWater>:
    3518:	cf 93       	push	r28
    351a:	df 93       	push	r29
    351c:	c8 2f       	mov	r28, r24
    351e:	d9 2f       	mov	r29, r25
    3520:	68 2f       	mov	r22, r24
    3522:	82 e0       	ldi	r24, 0x02	; 2
    3524:	90 e0       	ldi	r25, 0x00	; 0
    3526:	8f de       	rcall	.-738    	; 0x3246 <nvm_eeprom_write_byte>
    3528:	c0 93 14 23 	sts	0x2314, r28
    352c:	d0 93 15 23 	sts	0x2315, r29
    3530:	df 91       	pop	r29
    3532:	cf 91       	pop	r28
    3534:	08 95       	ret

00003536 <adc_init>:
    3536:	cf 93       	push	r28
    3538:	df 93       	push	r29
    353a:	cd b7       	in	r28, 0x3d	; 61
    353c:	de b7       	in	r29, 0x3e	; 62
    353e:	2b 97       	sbiw	r28, 0x0b	; 11
    3540:	cd bf       	out	0x3d, r28	; 61
    3542:	de bf       	out	0x3e, r29	; 62
    3544:	be 01       	movw	r22, r28
    3546:	6f 5f       	subi	r22, 0xFF	; 255
    3548:	7f 4f       	sbci	r23, 0xFF	; 255
    354a:	80 e0       	ldi	r24, 0x00	; 0
    354c:	92 e0       	ldi	r25, 0x02	; 2
    354e:	0e 94 31 0e 	call	0x1c62	; 0x1c62 <adc_read_configuration>
    3552:	ae 01       	movw	r20, r28
    3554:	48 5f       	subi	r20, 0xF8	; 248
    3556:	5f 4f       	sbci	r21, 0xFF	; 255
    3558:	61 e0       	ldi	r22, 0x01	; 1
    355a:	80 e0       	ldi	r24, 0x00	; 0
    355c:	92 e0       	ldi	r25, 0x02	; 2
    355e:	0e 94 8d 0e 	call	0x1d1a	; 0x1d1a <adcch_read_configuration>
    3562:	8a 81       	ldd	r24, Y+2	; 0x02
    3564:	9b 81       	ldd	r25, Y+3	; 0x03
    3566:	9f 78       	andi	r25, 0x8F	; 143
    3568:	90 61       	ori	r25, 0x10	; 16
    356a:	9b 83       	std	Y+3, r25	; 0x03
    356c:	81 7e       	andi	r24, 0xE1	; 225
    356e:	8a 83       	std	Y+2, r24	; 0x02
    3570:	1c 82       	std	Y+4, r1	; 0x04
    3572:	86 e0       	ldi	r24, 0x06	; 6
    3574:	8d 83       	std	Y+5, r24	; 0x05
    3576:	81 e0       	ldi	r24, 0x01	; 1
    3578:	88 87       	std	Y+8, r24	; 0x08
    357a:	19 86       	std	Y+9, r1	; 0x09
    357c:	be 01       	movw	r22, r28
    357e:	6f 5f       	subi	r22, 0xFF	; 255
    3580:	7f 4f       	sbci	r23, 0xFF	; 255
    3582:	80 e0       	ldi	r24, 0x00	; 0
    3584:	92 e0       	ldi	r25, 0x02	; 2
    3586:	0e 94 dc 0d 	call	0x1bb8	; 0x1bb8 <adc_write_configuration>
    358a:	ae 01       	movw	r20, r28
    358c:	48 5f       	subi	r20, 0xF8	; 248
    358e:	5f 4f       	sbci	r21, 0xFF	; 255
    3590:	61 e0       	ldi	r22, 0x01	; 1
    3592:	80 e0       	ldi	r24, 0x00	; 0
    3594:	92 e0       	ldi	r25, 0x02	; 2
    3596:	0e 94 54 0e 	call	0x1ca8	; 0x1ca8 <adcch_write_configuration>
    359a:	2b 96       	adiw	r28, 0x0b	; 11
    359c:	cd bf       	out	0x3d, r28	; 61
    359e:	de bf       	out	0x3e, r29	; 62
    35a0:	df 91       	pop	r29
    35a2:	cf 91       	pop	r28
    35a4:	08 95       	ret

000035a6 <pwm_init>:
    35a6:	e0 e4       	ldi	r30, 0x40	; 64
    35a8:	f6 e0       	ldi	r31, 0x06	; 6
    35aa:	80 81       	ld	r24, Z
    35ac:	81 60       	ori	r24, 0x01	; 1
    35ae:	80 83       	st	Z, r24
    35b0:	e0 e0       	ldi	r30, 0x00	; 0
    35b2:	f8 e0       	ldi	r31, 0x08	; 8
    35b4:	85 e0       	ldi	r24, 0x05	; 5
    35b6:	80 83       	st	Z, r24
    35b8:	86 e1       	ldi	r24, 0x16	; 22
    35ba:	81 83       	std	Z+1, r24	; 0x01
    35bc:	80 e4       	ldi	r24, 0x40	; 64
    35be:	9f e1       	ldi	r25, 0x1F	; 31
    35c0:	86 a3       	std	Z+38, r24	; 0x26
    35c2:	97 a3       	std	Z+39, r25	; 0x27
    35c4:	87 e7       	ldi	r24, 0x77	; 119
    35c6:	91 e0       	ldi	r25, 0x01	; 1
    35c8:	80 a7       	std	Z+40, r24	; 0x28
    35ca:	91 a7       	std	Z+41, r25	; 0x29
    35cc:	08 95       	ret

000035ce <closeTap>:
    35ce:	e0 e4       	ldi	r30, 0x40	; 64
    35d0:	f6 e0       	ldi	r31, 0x06	; 6
    35d2:	80 81       	ld	r24, Z
    35d4:	81 60       	ori	r24, 0x01	; 1
    35d6:	80 83       	st	Z, r24
    35d8:	e0 e0       	ldi	r30, 0x00	; 0
    35da:	f8 e0       	ldi	r31, 0x08	; 8
    35dc:	85 e0       	ldi	r24, 0x05	; 5
    35de:	80 83       	st	Z, r24
    35e0:	86 e1       	ldi	r24, 0x16	; 22
    35e2:	81 83       	std	Z+1, r24	; 0x01
    35e4:	80 e4       	ldi	r24, 0x40	; 64
    35e6:	9f e1       	ldi	r25, 0x1F	; 31
    35e8:	86 a3       	std	Z+38, r24	; 0x26
    35ea:	97 a3       	std	Z+39, r25	; 0x27
    35ec:	87 e7       	ldi	r24, 0x77	; 119
    35ee:	91 e0       	ldi	r25, 0x01	; 1
    35f0:	80 a7       	std	Z+40, r24	; 0x28
    35f2:	91 a7       	std	Z+41, r25	; 0x29
    35f4:	08 95       	ret

000035f6 <openTap>:
    35f6:	e0 e4       	ldi	r30, 0x40	; 64
    35f8:	f6 e0       	ldi	r31, 0x06	; 6
    35fa:	80 81       	ld	r24, Z
    35fc:	81 60       	ori	r24, 0x01	; 1
    35fe:	80 83       	st	Z, r24
    3600:	e0 e0       	ldi	r30, 0x00	; 0
    3602:	f8 e0       	ldi	r31, 0x08	; 8
    3604:	85 e0       	ldi	r24, 0x05	; 5
    3606:	80 83       	st	Z, r24
    3608:	86 e1       	ldi	r24, 0x16	; 22
    360a:	81 83       	std	Z+1, r24	; 0x01
    360c:	80 e4       	ldi	r24, 0x40	; 64
    360e:	9f e1       	ldi	r25, 0x1F	; 31
    3610:	86 a3       	std	Z+38, r24	; 0x26
    3612:	97 a3       	std	Z+39, r25	; 0x27
    3614:	81 e0       	ldi	r24, 0x01	; 1
    3616:	90 e0       	ldi	r25, 0x00	; 0
    3618:	80 a7       	std	Z+40, r24	; 0x28
    361a:	91 a7       	std	Z+41, r25	; 0x29
    361c:	08 95       	ret

0000361e <openCloseTap>:
    361e:	c0 e8       	ldi	r28, 0x80	; 128
    3620:	d6 e0       	ldi	r29, 0x06	; 6
    3622:	01 e0       	ldi	r16, 0x01	; 1
    3624:	10 e0       	ldi	r17, 0x00	; 0
    3626:	88 85       	ldd	r24, Y+8	; 0x08
    3628:	85 fd       	sbrc	r24, 5
    362a:	11 c0       	rjmp	.+34     	; 0x364e <openCloseTap+0x30>
    362c:	80 91 1a 23 	lds	r24, 0x231A
    3630:	90 91 1b 23 	lds	r25, 0x231B
    3634:	89 2b       	or	r24, r25
    3636:	31 f4       	brne	.+12     	; 0x3644 <openCloseTap+0x26>
    3638:	de df       	rcall	.-68     	; 0x35f6 <openTap>
    363a:	00 93 1a 23 	sts	0x231A, r16
    363e:	10 93 1b 23 	sts	0x231B, r17
    3642:	05 c0       	rjmp	.+10     	; 0x364e <openCloseTap+0x30>
    3644:	c4 df       	rcall	.-120    	; 0x35ce <closeTap>
    3646:	10 92 1a 23 	sts	0x231A, r1
    364a:	10 92 1b 23 	sts	0x231B, r1
    364e:	8a e0       	ldi	r24, 0x0A	; 10
    3650:	90 e0       	ldi	r25, 0x00	; 0
    3652:	0e dd       	rcall	.-1508   	; 0x3070 <vTaskDelay>
    3654:	e8 cf       	rjmp	.-48     	; 0x3626 <openCloseTap+0x8>

00003656 <waterAlertOn>:
    3656:	81 e0       	ldi	r24, 0x01	; 1
    3658:	80 93 80 06 	sts	0x0680, r24
    365c:	80 93 84 06 	sts	0x0684, r24
    3660:	08 95       	ret

00003662 <waterAlertOff>:
    3662:	81 e0       	ldi	r24, 0x01	; 1
    3664:	80 93 80 06 	sts	0x0680, r24
    3668:	10 92 84 06 	sts	0x0684, r1
    366c:	08 95       	ret

0000366e <waterAlertTask>:
    366e:	20 91 16 23 	lds	r18, 0x2316
    3672:	30 91 17 23 	lds	r19, 0x2317
    3676:	80 91 14 23 	lds	r24, 0x2314
    367a:	90 91 15 23 	lds	r25, 0x2315
    367e:	82 17       	cp	r24, r18
    3680:	93 07       	cpc	r25, r19
    3682:	5c f4       	brge	.+22     	; 0x369a <waterAlertTask+0x2c>
    3684:	80 91 1a 23 	lds	r24, 0x231A
    3688:	90 91 1b 23 	lds	r25, 0x231B
    368c:	01 97       	sbiw	r24, 0x01	; 1
    368e:	29 f4       	brne	.+10     	; 0x369a <waterAlertTask+0x2c>
    3690:	e2 df       	rcall	.-60     	; 0x3656 <waterAlertOn>
    3692:	82 e3       	ldi	r24, 0x32	; 50
    3694:	90 e0       	ldi	r25, 0x00	; 0
    3696:	ec dc       	rcall	.-1576   	; 0x3070 <vTaskDelay>
    3698:	e4 df       	rcall	.-56     	; 0x3662 <waterAlertOff>
    369a:	8a e0       	ldi	r24, 0x0A	; 10
    369c:	90 e0       	ldi	r25, 0x00	; 0
    369e:	e8 dc       	rcall	.-1584   	; 0x3070 <vTaskDelay>
    36a0:	e6 cf       	rjmp	.-52     	; 0x366e <waterAlertTask>

000036a2 <main>:
		vTaskDelay(1);
	}
}

int main (void)
{
    36a2:	af 92       	push	r10
    36a4:	bf 92       	push	r11
    36a6:	cf 92       	push	r12
    36a8:	df 92       	push	r13
    36aa:	ef 92       	push	r14
    36ac:	ff 92       	push	r15
    36ae:	0f 93       	push	r16
	board_init(); //konfigurasi awal board
    36b0:	28 de       	rcall	.-944    	; 0x3302 <board_init>
	sysclk_init(); //konfigurasi awal system clock
    36b2:	57 dd       	rcall	.-1362   	; 0x3162 <sysclk_init>
	adc_sensors_init();// konfigurasi adc
    36b4:	0e 94 4c 08 	call	0x1098	; 0x1098 <adc_sensors_init>
	gfx_mono_init(); //konfigurasi awal LCD monochrom
    36b8:	0e 94 28 0b 	call	0x1650	; 0x1650 <gfx_mono_st7565r_init>
	tb_init(); //konfigurasi touch button
    36bc:	0e 94 aa 0b 	call	0x1754	; 0x1754 <tb_init>
	cpu_irq_enable(); // konfigurasi untuk menghidupkan interrupt
    36c0:	78 94       	sei
 * Enables all interrupt levels, with vectors located in the application section
 * and fixed priority scheduling.
 */
static inline void pmic_init(void)
{
	PMIC.CTRL = PMIC_LVL_LOW | PMIC_LVL_MEDIUM |
    36c2:	87 e0       	ldi	r24, 0x07	; 7
    36c4:	e0 ea       	ldi	r30, 0xA0	; 160
    36c6:	f0 e0       	ldi	r31, 0x00	; 0
    36c8:	82 83       	std	Z+2, r24	; 0x02
	pmic_init(); //konfigurasi untuk menyalakan semua interrupt dan mengatur prioritas task
	pwm_init();
    36ca:	6d df       	rcall	.-294    	; 0x35a6 <pwm_init>
	adc_init();
    36cc:	34 df       	rcall	.-408    	; 0x3536 <adc_init>
		bool level)
{
	PORT_t *base = arch_ioport_pin_to_base(pin);

	if (level) {
		base->OUTSET = arch_ioport_pin_to_mask(pin);
    36ce:	80 e1       	ldi	r24, 0x10	; 16
    36d0:	e0 e8       	ldi	r30, 0x80	; 128
    36d2:	f6 e0       	ldi	r31, 0x06	; 6
    36d4:	85 83       	std	Z+5, r24	; 0x05
	gpio_set_pin_high(NHD_C12832A1Z_BACKLIGHT);
	setMaxWater(200);
    36d6:	88 ec       	ldi	r24, 0xC8	; 200
    36d8:	90 e0       	ldi	r25, 0x00	; 0
    36da:	1e df       	rcall	.-452    	; 0x3518 <setMaxWater>
	xTaskCreate(openCloseTap, "", 200, NULL, 1, NULL);
    36dc:	a1 2c       	mov	r10, r1
    36de:	b1 2c       	mov	r11, r1
    36e0:	c1 2c       	mov	r12, r1
    36e2:	d1 2c       	mov	r13, r1
    36e4:	e1 2c       	mov	r14, r1
    36e6:	f1 2c       	mov	r15, r1
    36e8:	01 e0       	ldi	r16, 0x01	; 1
    36ea:	20 e0       	ldi	r18, 0x00	; 0
    36ec:	30 e0       	ldi	r19, 0x00	; 0
    36ee:	48 ec       	ldi	r20, 0xC8	; 200
    36f0:	50 e0       	ldi	r21, 0x00	; 0
    36f2:	6f e1       	ldi	r22, 0x1F	; 31
    36f4:	70 e2       	ldi	r23, 0x20	; 32
    36f6:	8f e0       	ldi	r24, 0x0F	; 15
    36f8:	9b e1       	ldi	r25, 0x1B	; 27
    36fa:	39 da       	rcall	.-2958   	; 0x2b6e <xTaskGenericCreate>
	xTaskCreate(setWaterDebit, "", 200, NULL, 1, NULL);
    36fc:	20 e0       	ldi	r18, 0x00	; 0
    36fe:	30 e0       	ldi	r19, 0x00	; 0
    3700:	48 ec       	ldi	r20, 0xC8	; 200
    3702:	50 e0       	ldi	r21, 0x00	; 0
    3704:	6f e1       	ldi	r22, 0x1F	; 31
    3706:	70 e2       	ldi	r23, 0x20	; 32
    3708:	83 e6       	ldi	r24, 0x63	; 99
    370a:	9a e1       	ldi	r25, 0x1A	; 26
    370c:	30 da       	rcall	.-2976   	; 0x2b6e <xTaskGenericCreate>
	xTaskCreate(countWaterUsage, "", 400, NULL, 1, NULL);
    370e:	20 e0       	ldi	r18, 0x00	; 0
    3710:	30 e0       	ldi	r19, 0x00	; 0
    3712:	40 e9       	ldi	r20, 0x90	; 144
    3714:	51 e0       	ldi	r21, 0x01	; 1
    3716:	6f e1       	ldi	r22, 0x1F	; 31
    3718:	70 e2       	ldi	r23, 0x20	; 32
    371a:	86 e4       	ldi	r24, 0x46	; 70
    371c:	9a e1       	ldi	r25, 0x1A	; 26
    371e:	27 da       	rcall	.-2994   	; 0x2b6e <xTaskGenericCreate>
	xTaskCreate(waterAlertTask, "", 200, NULL, 1, NULL);
    3720:	20 e0       	ldi	r18, 0x00	; 0
    3722:	30 e0       	ldi	r19, 0x00	; 0
    3724:	48 ec       	ldi	r20, 0xC8	; 200
    3726:	50 e0       	ldi	r21, 0x00	; 0
    3728:	6f e1       	ldi	r22, 0x1F	; 31
    372a:	70 e2       	ldi	r23, 0x20	; 32
    372c:	87 e3       	ldi	r24, 0x37	; 55
    372e:	9b e1       	ldi	r25, 0x1B	; 27
    3730:	1e da       	rcall	.-3012   	; 0x2b6e <xTaskGenericCreate>
//	xTaskCreate(checkWater, "", 200, NULL, 1, NULL);
	xTaskCreate(vLCD, "", 600, NULL, 1, NULL);
    3732:	20 e0       	ldi	r18, 0x00	; 0
    3734:	30 e0       	ldi	r19, 0x00	; 0
    3736:	48 e5       	ldi	r20, 0x58	; 88
    3738:	52 e0       	ldi	r21, 0x02	; 2
    373a:	6f e1       	ldi	r22, 0x1F	; 31
    373c:	70 e2       	ldi	r23, 0x20	; 32
    373e:	80 ed       	ldi	r24, 0xD0	; 208
    3740:	99 e1       	ldi	r25, 0x19	; 25
    3742:	15 da       	rcall	.-3030   	; 0x2b6e <xTaskGenericCreate>
//	xTaskCreate(checkTap, "", 200, NULL, 1, NULL);

	vTaskStartScheduler();
    3744:	13 db       	rcall	.-2522   	; 0x2d6c <vTaskStartScheduler>
    3746:	80 e0       	ldi	r24, 0x00	; 0
    3748:	90 e0       	ldi	r25, 0x00	; 0
    374a:	0f 91       	pop	r16
    374c:	ff 90       	pop	r15
    374e:	ef 90       	pop	r14
    3750:	df 90       	pop	r13
    3752:	cf 90       	pop	r12
    3754:	bf 90       	pop	r11
    3756:	af 90       	pop	r10
    3758:	08 95       	ret

0000375a <__udivmodsi4>:
    375a:	a1 e2       	ldi	r26, 0x21	; 33
    375c:	1a 2e       	mov	r1, r26
    375e:	aa 1b       	sub	r26, r26
    3760:	bb 1b       	sub	r27, r27
    3762:	fd 01       	movw	r30, r26
    3764:	0d c0       	rjmp	.+26     	; 0x3780 <__udivmodsi4_ep>

00003766 <__udivmodsi4_loop>:
    3766:	aa 1f       	adc	r26, r26
    3768:	bb 1f       	adc	r27, r27
    376a:	ee 1f       	adc	r30, r30
    376c:	ff 1f       	adc	r31, r31
    376e:	a2 17       	cp	r26, r18
    3770:	b3 07       	cpc	r27, r19
    3772:	e4 07       	cpc	r30, r20
    3774:	f5 07       	cpc	r31, r21
    3776:	20 f0       	brcs	.+8      	; 0x3780 <__udivmodsi4_ep>
    3778:	a2 1b       	sub	r26, r18
    377a:	b3 0b       	sbc	r27, r19
    377c:	e4 0b       	sbc	r30, r20
    377e:	f5 0b       	sbc	r31, r21

00003780 <__udivmodsi4_ep>:
    3780:	66 1f       	adc	r22, r22
    3782:	77 1f       	adc	r23, r23
    3784:	88 1f       	adc	r24, r24
    3786:	99 1f       	adc	r25, r25
    3788:	1a 94       	dec	r1
    378a:	69 f7       	brne	.-38     	; 0x3766 <__udivmodsi4_loop>
    378c:	60 95       	com	r22
    378e:	70 95       	com	r23
    3790:	80 95       	com	r24
    3792:	90 95       	com	r25
    3794:	9b 01       	movw	r18, r22
    3796:	ac 01       	movw	r20, r24
    3798:	bd 01       	movw	r22, r26
    379a:	cf 01       	movw	r24, r30
    379c:	08 95       	ret

0000379e <__umulhisi3>:
    379e:	a2 9f       	mul	r26, r18
    37a0:	b0 01       	movw	r22, r0
    37a2:	b3 9f       	mul	r27, r19
    37a4:	c0 01       	movw	r24, r0
    37a6:	a3 9f       	mul	r26, r19
    37a8:	70 0d       	add	r23, r0
    37aa:	81 1d       	adc	r24, r1
    37ac:	11 24       	eor	r1, r1
    37ae:	91 1d       	adc	r25, r1
    37b0:	b2 9f       	mul	r27, r18
    37b2:	70 0d       	add	r23, r0
    37b4:	81 1d       	adc	r24, r1
    37b6:	11 24       	eor	r1, r1
    37b8:	91 1d       	adc	r25, r1
    37ba:	08 95       	ret

000037bc <__prologue_saves__>:
    37bc:	2f 92       	push	r2
    37be:	3f 92       	push	r3
    37c0:	4f 92       	push	r4
    37c2:	5f 92       	push	r5
    37c4:	6f 92       	push	r6
    37c6:	7f 92       	push	r7
    37c8:	8f 92       	push	r8
    37ca:	9f 92       	push	r9
    37cc:	af 92       	push	r10
    37ce:	bf 92       	push	r11
    37d0:	cf 92       	push	r12
    37d2:	df 92       	push	r13
    37d4:	ef 92       	push	r14
    37d6:	ff 92       	push	r15
    37d8:	0f 93       	push	r16
    37da:	1f 93       	push	r17
    37dc:	cf 93       	push	r28
    37de:	df 93       	push	r29
    37e0:	cd b7       	in	r28, 0x3d	; 61
    37e2:	de b7       	in	r29, 0x3e	; 62
    37e4:	ca 1b       	sub	r28, r26
    37e6:	db 0b       	sbc	r29, r27
    37e8:	cd bf       	out	0x3d, r28	; 61
    37ea:	de bf       	out	0x3e, r29	; 62
    37ec:	19 94       	eijmp

000037ee <__epilogue_restores__>:
    37ee:	2a 88       	ldd	r2, Y+18	; 0x12
    37f0:	39 88       	ldd	r3, Y+17	; 0x11
    37f2:	48 88       	ldd	r4, Y+16	; 0x10
    37f4:	5f 84       	ldd	r5, Y+15	; 0x0f
    37f6:	6e 84       	ldd	r6, Y+14	; 0x0e
    37f8:	7d 84       	ldd	r7, Y+13	; 0x0d
    37fa:	8c 84       	ldd	r8, Y+12	; 0x0c
    37fc:	9b 84       	ldd	r9, Y+11	; 0x0b
    37fe:	aa 84       	ldd	r10, Y+10	; 0x0a
    3800:	b9 84       	ldd	r11, Y+9	; 0x09
    3802:	c8 84       	ldd	r12, Y+8	; 0x08
    3804:	df 80       	ldd	r13, Y+7	; 0x07
    3806:	ee 80       	ldd	r14, Y+6	; 0x06
    3808:	fd 80       	ldd	r15, Y+5	; 0x05
    380a:	0c 81       	ldd	r16, Y+4	; 0x04
    380c:	1b 81       	ldd	r17, Y+3	; 0x03
    380e:	aa 81       	ldd	r26, Y+2	; 0x02
    3810:	b9 81       	ldd	r27, Y+1	; 0x01
    3812:	ce 0f       	add	r28, r30
    3814:	d1 1d       	adc	r29, r1
    3816:	cd bf       	out	0x3d, r28	; 61
    3818:	de bf       	out	0x3e, r29	; 62
    381a:	ed 01       	movw	r28, r26
    381c:	08 95       	ret

0000381e <malloc>:
    381e:	cf 93       	push	r28
    3820:	df 93       	push	r29
    3822:	82 30       	cpi	r24, 0x02	; 2
    3824:	91 05       	cpc	r25, r1
    3826:	10 f4       	brcc	.+4      	; 0x382c <malloc+0xe>
    3828:	82 e0       	ldi	r24, 0x02	; 2
    382a:	90 e0       	ldi	r25, 0x00	; 0
    382c:	e0 91 f1 23 	lds	r30, 0x23F1
    3830:	f0 91 f2 23 	lds	r31, 0x23F2
    3834:	20 e0       	ldi	r18, 0x00	; 0
    3836:	30 e0       	ldi	r19, 0x00	; 0
    3838:	a0 e0       	ldi	r26, 0x00	; 0
    383a:	b0 e0       	ldi	r27, 0x00	; 0
    383c:	30 97       	sbiw	r30, 0x00	; 0
    383e:	39 f1       	breq	.+78     	; 0x388e <malloc+0x70>
    3840:	40 81       	ld	r20, Z
    3842:	51 81       	ldd	r21, Z+1	; 0x01
    3844:	48 17       	cp	r20, r24
    3846:	59 07       	cpc	r21, r25
    3848:	b8 f0       	brcs	.+46     	; 0x3878 <malloc+0x5a>
    384a:	48 17       	cp	r20, r24
    384c:	59 07       	cpc	r21, r25
    384e:	71 f4       	brne	.+28     	; 0x386c <malloc+0x4e>
    3850:	82 81       	ldd	r24, Z+2	; 0x02
    3852:	93 81       	ldd	r25, Z+3	; 0x03
    3854:	10 97       	sbiw	r26, 0x00	; 0
    3856:	29 f0       	breq	.+10     	; 0x3862 <malloc+0x44>
    3858:	12 96       	adiw	r26, 0x02	; 2
    385a:	8d 93       	st	X+, r24
    385c:	9c 93       	st	X, r25
    385e:	13 97       	sbiw	r26, 0x03	; 3
    3860:	2c c0       	rjmp	.+88     	; 0x38ba <malloc+0x9c>
    3862:	80 93 f1 23 	sts	0x23F1, r24
    3866:	90 93 f2 23 	sts	0x23F2, r25
    386a:	27 c0       	rjmp	.+78     	; 0x38ba <malloc+0x9c>
    386c:	21 15       	cp	r18, r1
    386e:	31 05       	cpc	r19, r1
    3870:	31 f0       	breq	.+12     	; 0x387e <malloc+0x60>
    3872:	42 17       	cp	r20, r18
    3874:	53 07       	cpc	r21, r19
    3876:	18 f0       	brcs	.+6      	; 0x387e <malloc+0x60>
    3878:	a9 01       	movw	r20, r18
    387a:	db 01       	movw	r26, r22
    387c:	01 c0       	rjmp	.+2      	; 0x3880 <malloc+0x62>
    387e:	ef 01       	movw	r28, r30
    3880:	9a 01       	movw	r18, r20
    3882:	bd 01       	movw	r22, r26
    3884:	df 01       	movw	r26, r30
    3886:	02 80       	ldd	r0, Z+2	; 0x02
    3888:	f3 81       	ldd	r31, Z+3	; 0x03
    388a:	e0 2d       	mov	r30, r0
    388c:	d7 cf       	rjmp	.-82     	; 0x383c <malloc+0x1e>
    388e:	21 15       	cp	r18, r1
    3890:	31 05       	cpc	r19, r1
    3892:	f9 f0       	breq	.+62     	; 0x38d2 <malloc+0xb4>
    3894:	28 1b       	sub	r18, r24
    3896:	39 0b       	sbc	r19, r25
    3898:	24 30       	cpi	r18, 0x04	; 4
    389a:	31 05       	cpc	r19, r1
    389c:	80 f4       	brcc	.+32     	; 0x38be <malloc+0xa0>
    389e:	8a 81       	ldd	r24, Y+2	; 0x02
    38a0:	9b 81       	ldd	r25, Y+3	; 0x03
    38a2:	61 15       	cp	r22, r1
    38a4:	71 05       	cpc	r23, r1
    38a6:	21 f0       	breq	.+8      	; 0x38b0 <malloc+0x92>
    38a8:	fb 01       	movw	r30, r22
    38aa:	82 83       	std	Z+2, r24	; 0x02
    38ac:	93 83       	std	Z+3, r25	; 0x03
    38ae:	04 c0       	rjmp	.+8      	; 0x38b8 <malloc+0x9a>
    38b0:	80 93 f1 23 	sts	0x23F1, r24
    38b4:	90 93 f2 23 	sts	0x23F2, r25
    38b8:	fe 01       	movw	r30, r28
    38ba:	32 96       	adiw	r30, 0x02	; 2
    38bc:	44 c0       	rjmp	.+136    	; 0x3946 <malloc+0x128>
    38be:	fe 01       	movw	r30, r28
    38c0:	e2 0f       	add	r30, r18
    38c2:	f3 1f       	adc	r31, r19
    38c4:	81 93       	st	Z+, r24
    38c6:	91 93       	st	Z+, r25
    38c8:	22 50       	subi	r18, 0x02	; 2
    38ca:	31 09       	sbc	r19, r1
    38cc:	28 83       	st	Y, r18
    38ce:	39 83       	std	Y+1, r19	; 0x01
    38d0:	3a c0       	rjmp	.+116    	; 0x3946 <malloc+0x128>
    38d2:	20 91 ef 23 	lds	r18, 0x23EF
    38d6:	30 91 f0 23 	lds	r19, 0x23F0
    38da:	23 2b       	or	r18, r19
    38dc:	41 f4       	brne	.+16     	; 0x38ee <malloc+0xd0>
    38de:	20 91 03 20 	lds	r18, 0x2003
    38e2:	30 91 04 20 	lds	r19, 0x2004
    38e6:	20 93 ef 23 	sts	0x23EF, r18
    38ea:	30 93 f0 23 	sts	0x23F0, r19
    38ee:	20 91 01 20 	lds	r18, 0x2001
    38f2:	30 91 02 20 	lds	r19, 0x2002
    38f6:	21 15       	cp	r18, r1
    38f8:	31 05       	cpc	r19, r1
    38fa:	41 f4       	brne	.+16     	; 0x390c <malloc+0xee>
    38fc:	2d b7       	in	r18, 0x3d	; 61
    38fe:	3e b7       	in	r19, 0x3e	; 62
    3900:	40 91 05 20 	lds	r20, 0x2005
    3904:	50 91 06 20 	lds	r21, 0x2006
    3908:	24 1b       	sub	r18, r20
    390a:	35 0b       	sbc	r19, r21
    390c:	e0 91 ef 23 	lds	r30, 0x23EF
    3910:	f0 91 f0 23 	lds	r31, 0x23F0
    3914:	e2 17       	cp	r30, r18
    3916:	f3 07       	cpc	r31, r19
    3918:	a0 f4       	brcc	.+40     	; 0x3942 <malloc+0x124>
    391a:	2e 1b       	sub	r18, r30
    391c:	3f 0b       	sbc	r19, r31
    391e:	28 17       	cp	r18, r24
    3920:	39 07       	cpc	r19, r25
    3922:	78 f0       	brcs	.+30     	; 0x3942 <malloc+0x124>
    3924:	ac 01       	movw	r20, r24
    3926:	4e 5f       	subi	r20, 0xFE	; 254
    3928:	5f 4f       	sbci	r21, 0xFF	; 255
    392a:	24 17       	cp	r18, r20
    392c:	35 07       	cpc	r19, r21
    392e:	48 f0       	brcs	.+18     	; 0x3942 <malloc+0x124>
    3930:	4e 0f       	add	r20, r30
    3932:	5f 1f       	adc	r21, r31
    3934:	40 93 ef 23 	sts	0x23EF, r20
    3938:	50 93 f0 23 	sts	0x23F0, r21
    393c:	81 93       	st	Z+, r24
    393e:	91 93       	st	Z+, r25
    3940:	02 c0       	rjmp	.+4      	; 0x3946 <malloc+0x128>
    3942:	e0 e0       	ldi	r30, 0x00	; 0
    3944:	f0 e0       	ldi	r31, 0x00	; 0
    3946:	cf 01       	movw	r24, r30
    3948:	df 91       	pop	r29
    394a:	cf 91       	pop	r28
    394c:	08 95       	ret

0000394e <free>:
    394e:	cf 93       	push	r28
    3950:	df 93       	push	r29
    3952:	00 97       	sbiw	r24, 0x00	; 0
    3954:	09 f4       	brne	.+2      	; 0x3958 <free+0xa>
    3956:	87 c0       	rjmp	.+270    	; 0x3a66 <free+0x118>
    3958:	fc 01       	movw	r30, r24
    395a:	32 97       	sbiw	r30, 0x02	; 2
    395c:	12 82       	std	Z+2, r1	; 0x02
    395e:	13 82       	std	Z+3, r1	; 0x03
    3960:	c0 91 f1 23 	lds	r28, 0x23F1
    3964:	d0 91 f2 23 	lds	r29, 0x23F2
    3968:	20 97       	sbiw	r28, 0x00	; 0
    396a:	81 f4       	brne	.+32     	; 0x398c <free+0x3e>
    396c:	20 81       	ld	r18, Z
    396e:	31 81       	ldd	r19, Z+1	; 0x01
    3970:	28 0f       	add	r18, r24
    3972:	39 1f       	adc	r19, r25
    3974:	80 91 ef 23 	lds	r24, 0x23EF
    3978:	90 91 f0 23 	lds	r25, 0x23F0
    397c:	82 17       	cp	r24, r18
    397e:	93 07       	cpc	r25, r19
    3980:	79 f5       	brne	.+94     	; 0x39e0 <free+0x92>
    3982:	e0 93 ef 23 	sts	0x23EF, r30
    3986:	f0 93 f0 23 	sts	0x23F0, r31
    398a:	6d c0       	rjmp	.+218    	; 0x3a66 <free+0x118>
    398c:	de 01       	movw	r26, r28
    398e:	20 e0       	ldi	r18, 0x00	; 0
    3990:	30 e0       	ldi	r19, 0x00	; 0
    3992:	ae 17       	cp	r26, r30
    3994:	bf 07       	cpc	r27, r31
    3996:	50 f4       	brcc	.+20     	; 0x39ac <free+0x5e>
    3998:	12 96       	adiw	r26, 0x02	; 2
    399a:	4d 91       	ld	r20, X+
    399c:	5c 91       	ld	r21, X
    399e:	13 97       	sbiw	r26, 0x03	; 3
    39a0:	9d 01       	movw	r18, r26
    39a2:	41 15       	cp	r20, r1
    39a4:	51 05       	cpc	r21, r1
    39a6:	09 f1       	breq	.+66     	; 0x39ea <free+0x9c>
    39a8:	da 01       	movw	r26, r20
    39aa:	f3 cf       	rjmp	.-26     	; 0x3992 <free+0x44>
    39ac:	a2 83       	std	Z+2, r26	; 0x02
    39ae:	b3 83       	std	Z+3, r27	; 0x03
    39b0:	40 81       	ld	r20, Z
    39b2:	51 81       	ldd	r21, Z+1	; 0x01
    39b4:	84 0f       	add	r24, r20
    39b6:	95 1f       	adc	r25, r21
    39b8:	8a 17       	cp	r24, r26
    39ba:	9b 07       	cpc	r25, r27
    39bc:	71 f4       	brne	.+28     	; 0x39da <free+0x8c>
    39be:	8d 91       	ld	r24, X+
    39c0:	9c 91       	ld	r25, X
    39c2:	11 97       	sbiw	r26, 0x01	; 1
    39c4:	84 0f       	add	r24, r20
    39c6:	95 1f       	adc	r25, r21
    39c8:	02 96       	adiw	r24, 0x02	; 2
    39ca:	80 83       	st	Z, r24
    39cc:	91 83       	std	Z+1, r25	; 0x01
    39ce:	12 96       	adiw	r26, 0x02	; 2
    39d0:	8d 91       	ld	r24, X+
    39d2:	9c 91       	ld	r25, X
    39d4:	13 97       	sbiw	r26, 0x03	; 3
    39d6:	82 83       	std	Z+2, r24	; 0x02
    39d8:	93 83       	std	Z+3, r25	; 0x03
    39da:	21 15       	cp	r18, r1
    39dc:	31 05       	cpc	r19, r1
    39de:	29 f4       	brne	.+10     	; 0x39ea <free+0x9c>
    39e0:	e0 93 f1 23 	sts	0x23F1, r30
    39e4:	f0 93 f2 23 	sts	0x23F2, r31
    39e8:	3e c0       	rjmp	.+124    	; 0x3a66 <free+0x118>
    39ea:	d9 01       	movw	r26, r18
    39ec:	12 96       	adiw	r26, 0x02	; 2
    39ee:	ed 93       	st	X+, r30
    39f0:	fc 93       	st	X, r31
    39f2:	13 97       	sbiw	r26, 0x03	; 3
    39f4:	4d 91       	ld	r20, X+
    39f6:	5d 91       	ld	r21, X+
    39f8:	a4 0f       	add	r26, r20
    39fa:	b5 1f       	adc	r27, r21
    39fc:	ea 17       	cp	r30, r26
    39fe:	fb 07       	cpc	r31, r27
    3a00:	79 f4       	brne	.+30     	; 0x3a20 <free+0xd2>
    3a02:	80 81       	ld	r24, Z
    3a04:	91 81       	ldd	r25, Z+1	; 0x01
    3a06:	84 0f       	add	r24, r20
    3a08:	95 1f       	adc	r25, r21
    3a0a:	02 96       	adiw	r24, 0x02	; 2
    3a0c:	d9 01       	movw	r26, r18
    3a0e:	8d 93       	st	X+, r24
    3a10:	9c 93       	st	X, r25
    3a12:	11 97       	sbiw	r26, 0x01	; 1
    3a14:	82 81       	ldd	r24, Z+2	; 0x02
    3a16:	93 81       	ldd	r25, Z+3	; 0x03
    3a18:	12 96       	adiw	r26, 0x02	; 2
    3a1a:	8d 93       	st	X+, r24
    3a1c:	9c 93       	st	X, r25
    3a1e:	13 97       	sbiw	r26, 0x03	; 3
    3a20:	e0 e0       	ldi	r30, 0x00	; 0
    3a22:	f0 e0       	ldi	r31, 0x00	; 0
    3a24:	8a 81       	ldd	r24, Y+2	; 0x02
    3a26:	9b 81       	ldd	r25, Y+3	; 0x03
    3a28:	00 97       	sbiw	r24, 0x00	; 0
    3a2a:	19 f0       	breq	.+6      	; 0x3a32 <free+0xe4>
    3a2c:	fe 01       	movw	r30, r28
    3a2e:	ec 01       	movw	r28, r24
    3a30:	f9 cf       	rjmp	.-14     	; 0x3a24 <free+0xd6>
    3a32:	ce 01       	movw	r24, r28
    3a34:	02 96       	adiw	r24, 0x02	; 2
    3a36:	28 81       	ld	r18, Y
    3a38:	39 81       	ldd	r19, Y+1	; 0x01
    3a3a:	82 0f       	add	r24, r18
    3a3c:	93 1f       	adc	r25, r19
    3a3e:	20 91 ef 23 	lds	r18, 0x23EF
    3a42:	30 91 f0 23 	lds	r19, 0x23F0
    3a46:	28 17       	cp	r18, r24
    3a48:	39 07       	cpc	r19, r25
    3a4a:	69 f4       	brne	.+26     	; 0x3a66 <free+0x118>
    3a4c:	30 97       	sbiw	r30, 0x00	; 0
    3a4e:	29 f4       	brne	.+10     	; 0x3a5a <free+0x10c>
    3a50:	10 92 f1 23 	sts	0x23F1, r1
    3a54:	10 92 f2 23 	sts	0x23F2, r1
    3a58:	02 c0       	rjmp	.+4      	; 0x3a5e <free+0x110>
    3a5a:	12 82       	std	Z+2, r1	; 0x02
    3a5c:	13 82       	std	Z+3, r1	; 0x03
    3a5e:	c0 93 ef 23 	sts	0x23EF, r28
    3a62:	d0 93 f0 23 	sts	0x23F0, r29
    3a66:	df 91       	pop	r29
    3a68:	cf 91       	pop	r28
    3a6a:	08 95       	ret

00003a6c <snprintf>:
    3a6c:	0f 93       	push	r16
    3a6e:	1f 93       	push	r17
    3a70:	cf 93       	push	r28
    3a72:	df 93       	push	r29
    3a74:	cd b7       	in	r28, 0x3d	; 61
    3a76:	de b7       	in	r29, 0x3e	; 62
    3a78:	2e 97       	sbiw	r28, 0x0e	; 14
    3a7a:	cd bf       	out	0x3d, r28	; 61
    3a7c:	de bf       	out	0x3e, r29	; 62
    3a7e:	0e 89       	ldd	r16, Y+22	; 0x16
    3a80:	1f 89       	ldd	r17, Y+23	; 0x17
    3a82:	88 8d       	ldd	r24, Y+24	; 0x18
    3a84:	99 8d       	ldd	r25, Y+25	; 0x19
    3a86:	26 e0       	ldi	r18, 0x06	; 6
    3a88:	2c 83       	std	Y+4, r18	; 0x04
    3a8a:	09 83       	std	Y+1, r16	; 0x01
    3a8c:	1a 83       	std	Y+2, r17	; 0x02
    3a8e:	97 ff       	sbrs	r25, 7
    3a90:	02 c0       	rjmp	.+4      	; 0x3a96 <snprintf+0x2a>
    3a92:	80 e0       	ldi	r24, 0x00	; 0
    3a94:	90 e8       	ldi	r25, 0x80	; 128
    3a96:	01 97       	sbiw	r24, 0x01	; 1
    3a98:	8d 83       	std	Y+5, r24	; 0x05
    3a9a:	9e 83       	std	Y+6, r25	; 0x06
    3a9c:	ae 01       	movw	r20, r28
    3a9e:	44 5e       	subi	r20, 0xE4	; 228
    3aa0:	5f 4f       	sbci	r21, 0xFF	; 255
    3aa2:	6a 8d       	ldd	r22, Y+26	; 0x1a
    3aa4:	7b 8d       	ldd	r23, Y+27	; 0x1b
    3aa6:	ce 01       	movw	r24, r28
    3aa8:	01 96       	adiw	r24, 0x01	; 1
    3aaa:	16 d0       	rcall	.+44     	; 0x3ad8 <vfprintf>
    3aac:	4d 81       	ldd	r20, Y+5	; 0x05
    3aae:	5e 81       	ldd	r21, Y+6	; 0x06
    3ab0:	57 fd       	sbrc	r21, 7
    3ab2:	0a c0       	rjmp	.+20     	; 0x3ac8 <snprintf+0x5c>
    3ab4:	2f 81       	ldd	r18, Y+7	; 0x07
    3ab6:	38 85       	ldd	r19, Y+8	; 0x08
    3ab8:	42 17       	cp	r20, r18
    3aba:	53 07       	cpc	r21, r19
    3abc:	0c f4       	brge	.+2      	; 0x3ac0 <snprintf+0x54>
    3abe:	9a 01       	movw	r18, r20
    3ac0:	f8 01       	movw	r30, r16
    3ac2:	e2 0f       	add	r30, r18
    3ac4:	f3 1f       	adc	r31, r19
    3ac6:	10 82       	st	Z, r1
    3ac8:	2e 96       	adiw	r28, 0x0e	; 14
    3aca:	cd bf       	out	0x3d, r28	; 61
    3acc:	de bf       	out	0x3e, r29	; 62
    3ace:	df 91       	pop	r29
    3ad0:	cf 91       	pop	r28
    3ad2:	1f 91       	pop	r17
    3ad4:	0f 91       	pop	r16
    3ad6:	08 95       	ret

00003ad8 <vfprintf>:
    3ad8:	2f 92       	push	r2
    3ada:	3f 92       	push	r3
    3adc:	4f 92       	push	r4
    3ade:	5f 92       	push	r5
    3ae0:	6f 92       	push	r6
    3ae2:	7f 92       	push	r7
    3ae4:	8f 92       	push	r8
    3ae6:	9f 92       	push	r9
    3ae8:	af 92       	push	r10
    3aea:	bf 92       	push	r11
    3aec:	cf 92       	push	r12
    3aee:	df 92       	push	r13
    3af0:	ef 92       	push	r14
    3af2:	ff 92       	push	r15
    3af4:	0f 93       	push	r16
    3af6:	1f 93       	push	r17
    3af8:	cf 93       	push	r28
    3afa:	df 93       	push	r29
    3afc:	cd b7       	in	r28, 0x3d	; 61
    3afe:	de b7       	in	r29, 0x3e	; 62
    3b00:	2c 97       	sbiw	r28, 0x0c	; 12
    3b02:	cd bf       	out	0x3d, r28	; 61
    3b04:	de bf       	out	0x3e, r29	; 62
    3b06:	7c 01       	movw	r14, r24
    3b08:	6b 01       	movw	r12, r22
    3b0a:	8a 01       	movw	r16, r20
    3b0c:	fc 01       	movw	r30, r24
    3b0e:	16 82       	std	Z+6, r1	; 0x06
    3b10:	17 82       	std	Z+7, r1	; 0x07
    3b12:	83 81       	ldd	r24, Z+3	; 0x03
    3b14:	81 ff       	sbrs	r24, 1
    3b16:	b0 c1       	rjmp	.+864    	; 0x3e78 <vfprintf+0x3a0>
    3b18:	ce 01       	movw	r24, r28
    3b1a:	01 96       	adiw	r24, 0x01	; 1
    3b1c:	4c 01       	movw	r8, r24
    3b1e:	f7 01       	movw	r30, r14
    3b20:	93 81       	ldd	r25, Z+3	; 0x03
    3b22:	f6 01       	movw	r30, r12
    3b24:	93 fd       	sbrc	r25, 3
    3b26:	85 91       	lpm	r24, Z+
    3b28:	93 ff       	sbrs	r25, 3
    3b2a:	81 91       	ld	r24, Z+
    3b2c:	6f 01       	movw	r12, r30
    3b2e:	88 23       	and	r24, r24
    3b30:	09 f4       	brne	.+2      	; 0x3b34 <vfprintf+0x5c>
    3b32:	9e c1       	rjmp	.+828    	; 0x3e70 <vfprintf+0x398>
    3b34:	85 32       	cpi	r24, 0x25	; 37
    3b36:	39 f4       	brne	.+14     	; 0x3b46 <vfprintf+0x6e>
    3b38:	93 fd       	sbrc	r25, 3
    3b3a:	85 91       	lpm	r24, Z+
    3b3c:	93 ff       	sbrs	r25, 3
    3b3e:	81 91       	ld	r24, Z+
    3b40:	6f 01       	movw	r12, r30
    3b42:	85 32       	cpi	r24, 0x25	; 37
    3b44:	21 f4       	brne	.+8      	; 0x3b4e <vfprintf+0x76>
    3b46:	b7 01       	movw	r22, r14
    3b48:	90 e0       	ldi	r25, 0x00	; 0
    3b4a:	c4 d1       	rcall	.+904    	; 0x3ed4 <fputc>
    3b4c:	e8 cf       	rjmp	.-48     	; 0x3b1e <vfprintf+0x46>
    3b4e:	51 2c       	mov	r5, r1
    3b50:	31 2c       	mov	r3, r1
    3b52:	20 e0       	ldi	r18, 0x00	; 0
    3b54:	20 32       	cpi	r18, 0x20	; 32
    3b56:	a0 f4       	brcc	.+40     	; 0x3b80 <vfprintf+0xa8>
    3b58:	8b 32       	cpi	r24, 0x2B	; 43
    3b5a:	69 f0       	breq	.+26     	; 0x3b76 <vfprintf+0x9e>
    3b5c:	30 f4       	brcc	.+12     	; 0x3b6a <vfprintf+0x92>
    3b5e:	80 32       	cpi	r24, 0x20	; 32
    3b60:	59 f0       	breq	.+22     	; 0x3b78 <vfprintf+0xa0>
    3b62:	83 32       	cpi	r24, 0x23	; 35
    3b64:	69 f4       	brne	.+26     	; 0x3b80 <vfprintf+0xa8>
    3b66:	20 61       	ori	r18, 0x10	; 16
    3b68:	2c c0       	rjmp	.+88     	; 0x3bc2 <vfprintf+0xea>
    3b6a:	8d 32       	cpi	r24, 0x2D	; 45
    3b6c:	39 f0       	breq	.+14     	; 0x3b7c <vfprintf+0xa4>
    3b6e:	80 33       	cpi	r24, 0x30	; 48
    3b70:	39 f4       	brne	.+14     	; 0x3b80 <vfprintf+0xa8>
    3b72:	21 60       	ori	r18, 0x01	; 1
    3b74:	26 c0       	rjmp	.+76     	; 0x3bc2 <vfprintf+0xea>
    3b76:	22 60       	ori	r18, 0x02	; 2
    3b78:	24 60       	ori	r18, 0x04	; 4
    3b7a:	23 c0       	rjmp	.+70     	; 0x3bc2 <vfprintf+0xea>
    3b7c:	28 60       	ori	r18, 0x08	; 8
    3b7e:	21 c0       	rjmp	.+66     	; 0x3bc2 <vfprintf+0xea>
    3b80:	27 fd       	sbrc	r18, 7
    3b82:	27 c0       	rjmp	.+78     	; 0x3bd2 <vfprintf+0xfa>
    3b84:	30 ed       	ldi	r19, 0xD0	; 208
    3b86:	38 0f       	add	r19, r24
    3b88:	3a 30       	cpi	r19, 0x0A	; 10
    3b8a:	78 f4       	brcc	.+30     	; 0x3baa <vfprintf+0xd2>
    3b8c:	26 ff       	sbrs	r18, 6
    3b8e:	06 c0       	rjmp	.+12     	; 0x3b9c <vfprintf+0xc4>
    3b90:	fa e0       	ldi	r31, 0x0A	; 10
    3b92:	5f 9e       	mul	r5, r31
    3b94:	30 0d       	add	r19, r0
    3b96:	11 24       	eor	r1, r1
    3b98:	53 2e       	mov	r5, r19
    3b9a:	13 c0       	rjmp	.+38     	; 0x3bc2 <vfprintf+0xea>
    3b9c:	8a e0       	ldi	r24, 0x0A	; 10
    3b9e:	38 9e       	mul	r3, r24
    3ba0:	30 0d       	add	r19, r0
    3ba2:	11 24       	eor	r1, r1
    3ba4:	33 2e       	mov	r3, r19
    3ba6:	20 62       	ori	r18, 0x20	; 32
    3ba8:	0c c0       	rjmp	.+24     	; 0x3bc2 <vfprintf+0xea>
    3baa:	8e 32       	cpi	r24, 0x2E	; 46
    3bac:	21 f4       	brne	.+8      	; 0x3bb6 <vfprintf+0xde>
    3bae:	26 fd       	sbrc	r18, 6
    3bb0:	5f c1       	rjmp	.+702    	; 0x3e70 <vfprintf+0x398>
    3bb2:	20 64       	ori	r18, 0x40	; 64
    3bb4:	06 c0       	rjmp	.+12     	; 0x3bc2 <vfprintf+0xea>
    3bb6:	8c 36       	cpi	r24, 0x6C	; 108
    3bb8:	11 f4       	brne	.+4      	; 0x3bbe <vfprintf+0xe6>
    3bba:	20 68       	ori	r18, 0x80	; 128
    3bbc:	02 c0       	rjmp	.+4      	; 0x3bc2 <vfprintf+0xea>
    3bbe:	88 36       	cpi	r24, 0x68	; 104
    3bc0:	41 f4       	brne	.+16     	; 0x3bd2 <vfprintf+0xfa>
    3bc2:	f6 01       	movw	r30, r12
    3bc4:	93 fd       	sbrc	r25, 3
    3bc6:	85 91       	lpm	r24, Z+
    3bc8:	93 ff       	sbrs	r25, 3
    3bca:	81 91       	ld	r24, Z+
    3bcc:	6f 01       	movw	r12, r30
    3bce:	81 11       	cpse	r24, r1
    3bd0:	c1 cf       	rjmp	.-126    	; 0x3b54 <vfprintf+0x7c>
    3bd2:	98 2f       	mov	r25, r24
    3bd4:	9f 7d       	andi	r25, 0xDF	; 223
    3bd6:	95 54       	subi	r25, 0x45	; 69
    3bd8:	93 30       	cpi	r25, 0x03	; 3
    3bda:	28 f4       	brcc	.+10     	; 0x3be6 <vfprintf+0x10e>
    3bdc:	0c 5f       	subi	r16, 0xFC	; 252
    3bde:	1f 4f       	sbci	r17, 0xFF	; 255
    3be0:	ff e3       	ldi	r31, 0x3F	; 63
    3be2:	f9 83       	std	Y+1, r31	; 0x01
    3be4:	0d c0       	rjmp	.+26     	; 0x3c00 <vfprintf+0x128>
    3be6:	83 36       	cpi	r24, 0x63	; 99
    3be8:	31 f0       	breq	.+12     	; 0x3bf6 <vfprintf+0x11e>
    3bea:	83 37       	cpi	r24, 0x73	; 115
    3bec:	71 f0       	breq	.+28     	; 0x3c0a <vfprintf+0x132>
    3bee:	83 35       	cpi	r24, 0x53	; 83
    3bf0:	09 f0       	breq	.+2      	; 0x3bf4 <vfprintf+0x11c>
    3bf2:	57 c0       	rjmp	.+174    	; 0x3ca2 <vfprintf+0x1ca>
    3bf4:	21 c0       	rjmp	.+66     	; 0x3c38 <vfprintf+0x160>
    3bf6:	f8 01       	movw	r30, r16
    3bf8:	80 81       	ld	r24, Z
    3bfa:	89 83       	std	Y+1, r24	; 0x01
    3bfc:	0e 5f       	subi	r16, 0xFE	; 254
    3bfe:	1f 4f       	sbci	r17, 0xFF	; 255
    3c00:	44 24       	eor	r4, r4
    3c02:	43 94       	inc	r4
    3c04:	51 2c       	mov	r5, r1
    3c06:	54 01       	movw	r10, r8
    3c08:	14 c0       	rjmp	.+40     	; 0x3c32 <vfprintf+0x15a>
    3c0a:	38 01       	movw	r6, r16
    3c0c:	f2 e0       	ldi	r31, 0x02	; 2
    3c0e:	6f 0e       	add	r6, r31
    3c10:	71 1c       	adc	r7, r1
    3c12:	f8 01       	movw	r30, r16
    3c14:	a0 80       	ld	r10, Z
    3c16:	b1 80       	ldd	r11, Z+1	; 0x01
    3c18:	26 ff       	sbrs	r18, 6
    3c1a:	03 c0       	rjmp	.+6      	; 0x3c22 <vfprintf+0x14a>
    3c1c:	65 2d       	mov	r22, r5
    3c1e:	70 e0       	ldi	r23, 0x00	; 0
    3c20:	02 c0       	rjmp	.+4      	; 0x3c26 <vfprintf+0x14e>
    3c22:	6f ef       	ldi	r22, 0xFF	; 255
    3c24:	7f ef       	ldi	r23, 0xFF	; 255
    3c26:	c5 01       	movw	r24, r10
    3c28:	2c 87       	std	Y+12, r18	; 0x0c
    3c2a:	49 d1       	rcall	.+658    	; 0x3ebe <strnlen>
    3c2c:	2c 01       	movw	r4, r24
    3c2e:	83 01       	movw	r16, r6
    3c30:	2c 85       	ldd	r18, Y+12	; 0x0c
    3c32:	2f 77       	andi	r18, 0x7F	; 127
    3c34:	22 2e       	mov	r2, r18
    3c36:	16 c0       	rjmp	.+44     	; 0x3c64 <vfprintf+0x18c>
    3c38:	38 01       	movw	r6, r16
    3c3a:	f2 e0       	ldi	r31, 0x02	; 2
    3c3c:	6f 0e       	add	r6, r31
    3c3e:	71 1c       	adc	r7, r1
    3c40:	f8 01       	movw	r30, r16
    3c42:	a0 80       	ld	r10, Z
    3c44:	b1 80       	ldd	r11, Z+1	; 0x01
    3c46:	26 ff       	sbrs	r18, 6
    3c48:	03 c0       	rjmp	.+6      	; 0x3c50 <vfprintf+0x178>
    3c4a:	65 2d       	mov	r22, r5
    3c4c:	70 e0       	ldi	r23, 0x00	; 0
    3c4e:	02 c0       	rjmp	.+4      	; 0x3c54 <vfprintf+0x17c>
    3c50:	6f ef       	ldi	r22, 0xFF	; 255
    3c52:	7f ef       	ldi	r23, 0xFF	; 255
    3c54:	c5 01       	movw	r24, r10
    3c56:	2c 87       	std	Y+12, r18	; 0x0c
    3c58:	27 d1       	rcall	.+590    	; 0x3ea8 <strnlen_P>
    3c5a:	2c 01       	movw	r4, r24
    3c5c:	2c 85       	ldd	r18, Y+12	; 0x0c
    3c5e:	20 68       	ori	r18, 0x80	; 128
    3c60:	22 2e       	mov	r2, r18
    3c62:	83 01       	movw	r16, r6
    3c64:	23 fc       	sbrc	r2, 3
    3c66:	19 c0       	rjmp	.+50     	; 0x3c9a <vfprintf+0x1c2>
    3c68:	83 2d       	mov	r24, r3
    3c6a:	90 e0       	ldi	r25, 0x00	; 0
    3c6c:	48 16       	cp	r4, r24
    3c6e:	59 06       	cpc	r5, r25
    3c70:	a0 f4       	brcc	.+40     	; 0x3c9a <vfprintf+0x1c2>
    3c72:	b7 01       	movw	r22, r14
    3c74:	80 e2       	ldi	r24, 0x20	; 32
    3c76:	90 e0       	ldi	r25, 0x00	; 0
    3c78:	2d d1       	rcall	.+602    	; 0x3ed4 <fputc>
    3c7a:	3a 94       	dec	r3
    3c7c:	f5 cf       	rjmp	.-22     	; 0x3c68 <vfprintf+0x190>
    3c7e:	f5 01       	movw	r30, r10
    3c80:	27 fc       	sbrc	r2, 7
    3c82:	85 91       	lpm	r24, Z+
    3c84:	27 fe       	sbrs	r2, 7
    3c86:	81 91       	ld	r24, Z+
    3c88:	5f 01       	movw	r10, r30
    3c8a:	b7 01       	movw	r22, r14
    3c8c:	90 e0       	ldi	r25, 0x00	; 0
    3c8e:	22 d1       	rcall	.+580    	; 0x3ed4 <fputc>
    3c90:	31 10       	cpse	r3, r1
    3c92:	3a 94       	dec	r3
    3c94:	f1 e0       	ldi	r31, 0x01	; 1
    3c96:	4f 1a       	sub	r4, r31
    3c98:	51 08       	sbc	r5, r1
    3c9a:	41 14       	cp	r4, r1
    3c9c:	51 04       	cpc	r5, r1
    3c9e:	79 f7       	brne	.-34     	; 0x3c7e <vfprintf+0x1a6>
    3ca0:	de c0       	rjmp	.+444    	; 0x3e5e <vfprintf+0x386>
    3ca2:	84 36       	cpi	r24, 0x64	; 100
    3ca4:	11 f0       	breq	.+4      	; 0x3caa <vfprintf+0x1d2>
    3ca6:	89 36       	cpi	r24, 0x69	; 105
    3ca8:	31 f5       	brne	.+76     	; 0x3cf6 <vfprintf+0x21e>
    3caa:	f8 01       	movw	r30, r16
    3cac:	27 ff       	sbrs	r18, 7
    3cae:	07 c0       	rjmp	.+14     	; 0x3cbe <vfprintf+0x1e6>
    3cb0:	60 81       	ld	r22, Z
    3cb2:	71 81       	ldd	r23, Z+1	; 0x01
    3cb4:	82 81       	ldd	r24, Z+2	; 0x02
    3cb6:	93 81       	ldd	r25, Z+3	; 0x03
    3cb8:	0c 5f       	subi	r16, 0xFC	; 252
    3cba:	1f 4f       	sbci	r17, 0xFF	; 255
    3cbc:	08 c0       	rjmp	.+16     	; 0x3cce <vfprintf+0x1f6>
    3cbe:	60 81       	ld	r22, Z
    3cc0:	71 81       	ldd	r23, Z+1	; 0x01
    3cc2:	88 27       	eor	r24, r24
    3cc4:	77 fd       	sbrc	r23, 7
    3cc6:	80 95       	com	r24
    3cc8:	98 2f       	mov	r25, r24
    3cca:	0e 5f       	subi	r16, 0xFE	; 254
    3ccc:	1f 4f       	sbci	r17, 0xFF	; 255
    3cce:	2f 76       	andi	r18, 0x6F	; 111
    3cd0:	b2 2e       	mov	r11, r18
    3cd2:	97 ff       	sbrs	r25, 7
    3cd4:	09 c0       	rjmp	.+18     	; 0x3ce8 <vfprintf+0x210>
    3cd6:	90 95       	com	r25
    3cd8:	80 95       	com	r24
    3cda:	70 95       	com	r23
    3cdc:	61 95       	neg	r22
    3cde:	7f 4f       	sbci	r23, 0xFF	; 255
    3ce0:	8f 4f       	sbci	r24, 0xFF	; 255
    3ce2:	9f 4f       	sbci	r25, 0xFF	; 255
    3ce4:	20 68       	ori	r18, 0x80	; 128
    3ce6:	b2 2e       	mov	r11, r18
    3ce8:	2a e0       	ldi	r18, 0x0A	; 10
    3cea:	30 e0       	ldi	r19, 0x00	; 0
    3cec:	a4 01       	movw	r20, r8
    3cee:	24 d1       	rcall	.+584    	; 0x3f38 <__ultoa_invert>
    3cf0:	a8 2e       	mov	r10, r24
    3cf2:	a8 18       	sub	r10, r8
    3cf4:	43 c0       	rjmp	.+134    	; 0x3d7c <vfprintf+0x2a4>
    3cf6:	85 37       	cpi	r24, 0x75	; 117
    3cf8:	29 f4       	brne	.+10     	; 0x3d04 <vfprintf+0x22c>
    3cfa:	2f 7e       	andi	r18, 0xEF	; 239
    3cfc:	b2 2e       	mov	r11, r18
    3cfe:	2a e0       	ldi	r18, 0x0A	; 10
    3d00:	30 e0       	ldi	r19, 0x00	; 0
    3d02:	25 c0       	rjmp	.+74     	; 0x3d4e <vfprintf+0x276>
    3d04:	f2 2f       	mov	r31, r18
    3d06:	f9 7f       	andi	r31, 0xF9	; 249
    3d08:	bf 2e       	mov	r11, r31
    3d0a:	8f 36       	cpi	r24, 0x6F	; 111
    3d0c:	c1 f0       	breq	.+48     	; 0x3d3e <vfprintf+0x266>
    3d0e:	18 f4       	brcc	.+6      	; 0x3d16 <vfprintf+0x23e>
    3d10:	88 35       	cpi	r24, 0x58	; 88
    3d12:	79 f0       	breq	.+30     	; 0x3d32 <vfprintf+0x25a>
    3d14:	ad c0       	rjmp	.+346    	; 0x3e70 <vfprintf+0x398>
    3d16:	80 37       	cpi	r24, 0x70	; 112
    3d18:	19 f0       	breq	.+6      	; 0x3d20 <vfprintf+0x248>
    3d1a:	88 37       	cpi	r24, 0x78	; 120
    3d1c:	21 f0       	breq	.+8      	; 0x3d26 <vfprintf+0x24e>
    3d1e:	a8 c0       	rjmp	.+336    	; 0x3e70 <vfprintf+0x398>
    3d20:	2f 2f       	mov	r18, r31
    3d22:	20 61       	ori	r18, 0x10	; 16
    3d24:	b2 2e       	mov	r11, r18
    3d26:	b4 fe       	sbrs	r11, 4
    3d28:	0d c0       	rjmp	.+26     	; 0x3d44 <vfprintf+0x26c>
    3d2a:	8b 2d       	mov	r24, r11
    3d2c:	84 60       	ori	r24, 0x04	; 4
    3d2e:	b8 2e       	mov	r11, r24
    3d30:	09 c0       	rjmp	.+18     	; 0x3d44 <vfprintf+0x26c>
    3d32:	24 ff       	sbrs	r18, 4
    3d34:	0a c0       	rjmp	.+20     	; 0x3d4a <vfprintf+0x272>
    3d36:	9f 2f       	mov	r25, r31
    3d38:	96 60       	ori	r25, 0x06	; 6
    3d3a:	b9 2e       	mov	r11, r25
    3d3c:	06 c0       	rjmp	.+12     	; 0x3d4a <vfprintf+0x272>
    3d3e:	28 e0       	ldi	r18, 0x08	; 8
    3d40:	30 e0       	ldi	r19, 0x00	; 0
    3d42:	05 c0       	rjmp	.+10     	; 0x3d4e <vfprintf+0x276>
    3d44:	20 e1       	ldi	r18, 0x10	; 16
    3d46:	30 e0       	ldi	r19, 0x00	; 0
    3d48:	02 c0       	rjmp	.+4      	; 0x3d4e <vfprintf+0x276>
    3d4a:	20 e1       	ldi	r18, 0x10	; 16
    3d4c:	32 e0       	ldi	r19, 0x02	; 2
    3d4e:	f8 01       	movw	r30, r16
    3d50:	b7 fe       	sbrs	r11, 7
    3d52:	07 c0       	rjmp	.+14     	; 0x3d62 <vfprintf+0x28a>
    3d54:	60 81       	ld	r22, Z
    3d56:	71 81       	ldd	r23, Z+1	; 0x01
    3d58:	82 81       	ldd	r24, Z+2	; 0x02
    3d5a:	93 81       	ldd	r25, Z+3	; 0x03
    3d5c:	0c 5f       	subi	r16, 0xFC	; 252
    3d5e:	1f 4f       	sbci	r17, 0xFF	; 255
    3d60:	06 c0       	rjmp	.+12     	; 0x3d6e <vfprintf+0x296>
    3d62:	60 81       	ld	r22, Z
    3d64:	71 81       	ldd	r23, Z+1	; 0x01
    3d66:	80 e0       	ldi	r24, 0x00	; 0
    3d68:	90 e0       	ldi	r25, 0x00	; 0
    3d6a:	0e 5f       	subi	r16, 0xFE	; 254
    3d6c:	1f 4f       	sbci	r17, 0xFF	; 255
    3d6e:	a4 01       	movw	r20, r8
    3d70:	e3 d0       	rcall	.+454    	; 0x3f38 <__ultoa_invert>
    3d72:	a8 2e       	mov	r10, r24
    3d74:	a8 18       	sub	r10, r8
    3d76:	fb 2d       	mov	r31, r11
    3d78:	ff 77       	andi	r31, 0x7F	; 127
    3d7a:	bf 2e       	mov	r11, r31
    3d7c:	b6 fe       	sbrs	r11, 6
    3d7e:	0b c0       	rjmp	.+22     	; 0x3d96 <vfprintf+0x2be>
    3d80:	2b 2d       	mov	r18, r11
    3d82:	2e 7f       	andi	r18, 0xFE	; 254
    3d84:	a5 14       	cp	r10, r5
    3d86:	50 f4       	brcc	.+20     	; 0x3d9c <vfprintf+0x2c4>
    3d88:	b4 fe       	sbrs	r11, 4
    3d8a:	0a c0       	rjmp	.+20     	; 0x3da0 <vfprintf+0x2c8>
    3d8c:	b2 fc       	sbrc	r11, 2
    3d8e:	08 c0       	rjmp	.+16     	; 0x3da0 <vfprintf+0x2c8>
    3d90:	2b 2d       	mov	r18, r11
    3d92:	2e 7e       	andi	r18, 0xEE	; 238
    3d94:	05 c0       	rjmp	.+10     	; 0x3da0 <vfprintf+0x2c8>
    3d96:	7a 2c       	mov	r7, r10
    3d98:	2b 2d       	mov	r18, r11
    3d9a:	03 c0       	rjmp	.+6      	; 0x3da2 <vfprintf+0x2ca>
    3d9c:	7a 2c       	mov	r7, r10
    3d9e:	01 c0       	rjmp	.+2      	; 0x3da2 <vfprintf+0x2ca>
    3da0:	75 2c       	mov	r7, r5
    3da2:	24 ff       	sbrs	r18, 4
    3da4:	0d c0       	rjmp	.+26     	; 0x3dc0 <vfprintf+0x2e8>
    3da6:	fe 01       	movw	r30, r28
    3da8:	ea 0d       	add	r30, r10
    3daa:	f1 1d       	adc	r31, r1
    3dac:	80 81       	ld	r24, Z
    3dae:	80 33       	cpi	r24, 0x30	; 48
    3db0:	11 f4       	brne	.+4      	; 0x3db6 <vfprintf+0x2de>
    3db2:	29 7e       	andi	r18, 0xE9	; 233
    3db4:	09 c0       	rjmp	.+18     	; 0x3dc8 <vfprintf+0x2f0>
    3db6:	22 ff       	sbrs	r18, 2
    3db8:	06 c0       	rjmp	.+12     	; 0x3dc6 <vfprintf+0x2ee>
    3dba:	73 94       	inc	r7
    3dbc:	73 94       	inc	r7
    3dbe:	04 c0       	rjmp	.+8      	; 0x3dc8 <vfprintf+0x2f0>
    3dc0:	82 2f       	mov	r24, r18
    3dc2:	86 78       	andi	r24, 0x86	; 134
    3dc4:	09 f0       	breq	.+2      	; 0x3dc8 <vfprintf+0x2f0>
    3dc6:	73 94       	inc	r7
    3dc8:	23 fd       	sbrc	r18, 3
    3dca:	12 c0       	rjmp	.+36     	; 0x3df0 <vfprintf+0x318>
    3dcc:	20 ff       	sbrs	r18, 0
    3dce:	06 c0       	rjmp	.+12     	; 0x3ddc <vfprintf+0x304>
    3dd0:	5a 2c       	mov	r5, r10
    3dd2:	73 14       	cp	r7, r3
    3dd4:	18 f4       	brcc	.+6      	; 0x3ddc <vfprintf+0x304>
    3dd6:	53 0c       	add	r5, r3
    3dd8:	57 18       	sub	r5, r7
    3dda:	73 2c       	mov	r7, r3
    3ddc:	73 14       	cp	r7, r3
    3dde:	60 f4       	brcc	.+24     	; 0x3df8 <vfprintf+0x320>
    3de0:	b7 01       	movw	r22, r14
    3de2:	80 e2       	ldi	r24, 0x20	; 32
    3de4:	90 e0       	ldi	r25, 0x00	; 0
    3de6:	2c 87       	std	Y+12, r18	; 0x0c
    3de8:	75 d0       	rcall	.+234    	; 0x3ed4 <fputc>
    3dea:	73 94       	inc	r7
    3dec:	2c 85       	ldd	r18, Y+12	; 0x0c
    3dee:	f6 cf       	rjmp	.-20     	; 0x3ddc <vfprintf+0x304>
    3df0:	73 14       	cp	r7, r3
    3df2:	10 f4       	brcc	.+4      	; 0x3df8 <vfprintf+0x320>
    3df4:	37 18       	sub	r3, r7
    3df6:	01 c0       	rjmp	.+2      	; 0x3dfa <vfprintf+0x322>
    3df8:	31 2c       	mov	r3, r1
    3dfa:	24 ff       	sbrs	r18, 4
    3dfc:	11 c0       	rjmp	.+34     	; 0x3e20 <vfprintf+0x348>
    3dfe:	b7 01       	movw	r22, r14
    3e00:	80 e3       	ldi	r24, 0x30	; 48
    3e02:	90 e0       	ldi	r25, 0x00	; 0
    3e04:	2c 87       	std	Y+12, r18	; 0x0c
    3e06:	66 d0       	rcall	.+204    	; 0x3ed4 <fputc>
    3e08:	2c 85       	ldd	r18, Y+12	; 0x0c
    3e0a:	22 ff       	sbrs	r18, 2
    3e0c:	16 c0       	rjmp	.+44     	; 0x3e3a <vfprintf+0x362>
    3e0e:	21 ff       	sbrs	r18, 1
    3e10:	03 c0       	rjmp	.+6      	; 0x3e18 <vfprintf+0x340>
    3e12:	88 e5       	ldi	r24, 0x58	; 88
    3e14:	90 e0       	ldi	r25, 0x00	; 0
    3e16:	02 c0       	rjmp	.+4      	; 0x3e1c <vfprintf+0x344>
    3e18:	88 e7       	ldi	r24, 0x78	; 120
    3e1a:	90 e0       	ldi	r25, 0x00	; 0
    3e1c:	b7 01       	movw	r22, r14
    3e1e:	0c c0       	rjmp	.+24     	; 0x3e38 <vfprintf+0x360>
    3e20:	82 2f       	mov	r24, r18
    3e22:	86 78       	andi	r24, 0x86	; 134
    3e24:	51 f0       	breq	.+20     	; 0x3e3a <vfprintf+0x362>
    3e26:	21 fd       	sbrc	r18, 1
    3e28:	02 c0       	rjmp	.+4      	; 0x3e2e <vfprintf+0x356>
    3e2a:	80 e2       	ldi	r24, 0x20	; 32
    3e2c:	01 c0       	rjmp	.+2      	; 0x3e30 <vfprintf+0x358>
    3e2e:	8b e2       	ldi	r24, 0x2B	; 43
    3e30:	27 fd       	sbrc	r18, 7
    3e32:	8d e2       	ldi	r24, 0x2D	; 45
    3e34:	b7 01       	movw	r22, r14
    3e36:	90 e0       	ldi	r25, 0x00	; 0
    3e38:	4d d0       	rcall	.+154    	; 0x3ed4 <fputc>
    3e3a:	a5 14       	cp	r10, r5
    3e3c:	30 f4       	brcc	.+12     	; 0x3e4a <vfprintf+0x372>
    3e3e:	b7 01       	movw	r22, r14
    3e40:	80 e3       	ldi	r24, 0x30	; 48
    3e42:	90 e0       	ldi	r25, 0x00	; 0
    3e44:	47 d0       	rcall	.+142    	; 0x3ed4 <fputc>
    3e46:	5a 94       	dec	r5
    3e48:	f8 cf       	rjmp	.-16     	; 0x3e3a <vfprintf+0x362>
    3e4a:	aa 94       	dec	r10
    3e4c:	f4 01       	movw	r30, r8
    3e4e:	ea 0d       	add	r30, r10
    3e50:	f1 1d       	adc	r31, r1
    3e52:	80 81       	ld	r24, Z
    3e54:	b7 01       	movw	r22, r14
    3e56:	90 e0       	ldi	r25, 0x00	; 0
    3e58:	3d d0       	rcall	.+122    	; 0x3ed4 <fputc>
    3e5a:	a1 10       	cpse	r10, r1
    3e5c:	f6 cf       	rjmp	.-20     	; 0x3e4a <vfprintf+0x372>
    3e5e:	33 20       	and	r3, r3
    3e60:	09 f4       	brne	.+2      	; 0x3e64 <vfprintf+0x38c>
    3e62:	5d ce       	rjmp	.-838    	; 0x3b1e <vfprintf+0x46>
    3e64:	b7 01       	movw	r22, r14
    3e66:	80 e2       	ldi	r24, 0x20	; 32
    3e68:	90 e0       	ldi	r25, 0x00	; 0
    3e6a:	34 d0       	rcall	.+104    	; 0x3ed4 <fputc>
    3e6c:	3a 94       	dec	r3
    3e6e:	f7 cf       	rjmp	.-18     	; 0x3e5e <vfprintf+0x386>
    3e70:	f7 01       	movw	r30, r14
    3e72:	86 81       	ldd	r24, Z+6	; 0x06
    3e74:	97 81       	ldd	r25, Z+7	; 0x07
    3e76:	02 c0       	rjmp	.+4      	; 0x3e7c <vfprintf+0x3a4>
    3e78:	8f ef       	ldi	r24, 0xFF	; 255
    3e7a:	9f ef       	ldi	r25, 0xFF	; 255
    3e7c:	2c 96       	adiw	r28, 0x0c	; 12
    3e7e:	cd bf       	out	0x3d, r28	; 61
    3e80:	de bf       	out	0x3e, r29	; 62
    3e82:	df 91       	pop	r29
    3e84:	cf 91       	pop	r28
    3e86:	1f 91       	pop	r17
    3e88:	0f 91       	pop	r16
    3e8a:	ff 90       	pop	r15
    3e8c:	ef 90       	pop	r14
    3e8e:	df 90       	pop	r13
    3e90:	cf 90       	pop	r12
    3e92:	bf 90       	pop	r11
    3e94:	af 90       	pop	r10
    3e96:	9f 90       	pop	r9
    3e98:	8f 90       	pop	r8
    3e9a:	7f 90       	pop	r7
    3e9c:	6f 90       	pop	r6
    3e9e:	5f 90       	pop	r5
    3ea0:	4f 90       	pop	r4
    3ea2:	3f 90       	pop	r3
    3ea4:	2f 90       	pop	r2
    3ea6:	08 95       	ret

00003ea8 <strnlen_P>:
    3ea8:	fc 01       	movw	r30, r24
    3eaa:	05 90       	lpm	r0, Z+
    3eac:	61 50       	subi	r22, 0x01	; 1
    3eae:	70 40       	sbci	r23, 0x00	; 0
    3eb0:	01 10       	cpse	r0, r1
    3eb2:	d8 f7       	brcc	.-10     	; 0x3eaa <strnlen_P+0x2>
    3eb4:	80 95       	com	r24
    3eb6:	90 95       	com	r25
    3eb8:	8e 0f       	add	r24, r30
    3eba:	9f 1f       	adc	r25, r31
    3ebc:	08 95       	ret

00003ebe <strnlen>:
    3ebe:	fc 01       	movw	r30, r24
    3ec0:	61 50       	subi	r22, 0x01	; 1
    3ec2:	70 40       	sbci	r23, 0x00	; 0
    3ec4:	01 90       	ld	r0, Z+
    3ec6:	01 10       	cpse	r0, r1
    3ec8:	d8 f7       	brcc	.-10     	; 0x3ec0 <strnlen+0x2>
    3eca:	80 95       	com	r24
    3ecc:	90 95       	com	r25
    3ece:	8e 0f       	add	r24, r30
    3ed0:	9f 1f       	adc	r25, r31
    3ed2:	08 95       	ret

00003ed4 <fputc>:
    3ed4:	0f 93       	push	r16
    3ed6:	1f 93       	push	r17
    3ed8:	cf 93       	push	r28
    3eda:	df 93       	push	r29
    3edc:	18 2f       	mov	r17, r24
    3ede:	09 2f       	mov	r16, r25
    3ee0:	eb 01       	movw	r28, r22
    3ee2:	8b 81       	ldd	r24, Y+3	; 0x03
    3ee4:	81 fd       	sbrc	r24, 1
    3ee6:	03 c0       	rjmp	.+6      	; 0x3eee <fputc+0x1a>
    3ee8:	8f ef       	ldi	r24, 0xFF	; 255
    3eea:	9f ef       	ldi	r25, 0xFF	; 255
    3eec:	20 c0       	rjmp	.+64     	; 0x3f2e <fputc+0x5a>
    3eee:	82 ff       	sbrs	r24, 2
    3ef0:	10 c0       	rjmp	.+32     	; 0x3f12 <fputc+0x3e>
    3ef2:	4e 81       	ldd	r20, Y+6	; 0x06
    3ef4:	5f 81       	ldd	r21, Y+7	; 0x07
    3ef6:	2c 81       	ldd	r18, Y+4	; 0x04
    3ef8:	3d 81       	ldd	r19, Y+5	; 0x05
    3efa:	42 17       	cp	r20, r18
    3efc:	53 07       	cpc	r21, r19
    3efe:	7c f4       	brge	.+30     	; 0x3f1e <fputc+0x4a>
    3f00:	e8 81       	ld	r30, Y
    3f02:	f9 81       	ldd	r31, Y+1	; 0x01
    3f04:	9f 01       	movw	r18, r30
    3f06:	2f 5f       	subi	r18, 0xFF	; 255
    3f08:	3f 4f       	sbci	r19, 0xFF	; 255
    3f0a:	28 83       	st	Y, r18
    3f0c:	39 83       	std	Y+1, r19	; 0x01
    3f0e:	10 83       	st	Z, r17
    3f10:	06 c0       	rjmp	.+12     	; 0x3f1e <fputc+0x4a>
    3f12:	e8 85       	ldd	r30, Y+8	; 0x08
    3f14:	f9 85       	ldd	r31, Y+9	; 0x09
    3f16:	81 2f       	mov	r24, r17
    3f18:	19 95       	eicall
    3f1a:	89 2b       	or	r24, r25
    3f1c:	29 f7       	brne	.-54     	; 0x3ee8 <fputc+0x14>
    3f1e:	2e 81       	ldd	r18, Y+6	; 0x06
    3f20:	3f 81       	ldd	r19, Y+7	; 0x07
    3f22:	2f 5f       	subi	r18, 0xFF	; 255
    3f24:	3f 4f       	sbci	r19, 0xFF	; 255
    3f26:	2e 83       	std	Y+6, r18	; 0x06
    3f28:	3f 83       	std	Y+7, r19	; 0x07
    3f2a:	81 2f       	mov	r24, r17
    3f2c:	90 2f       	mov	r25, r16
    3f2e:	df 91       	pop	r29
    3f30:	cf 91       	pop	r28
    3f32:	1f 91       	pop	r17
    3f34:	0f 91       	pop	r16
    3f36:	08 95       	ret

00003f38 <__ultoa_invert>:
    3f38:	fa 01       	movw	r30, r20
    3f3a:	aa 27       	eor	r26, r26
    3f3c:	28 30       	cpi	r18, 0x08	; 8
    3f3e:	51 f1       	breq	.+84     	; 0x3f94 <__ultoa_invert+0x5c>
    3f40:	20 31       	cpi	r18, 0x10	; 16
    3f42:	81 f1       	breq	.+96     	; 0x3fa4 <__ultoa_invert+0x6c>
    3f44:	e8 94       	clt
    3f46:	6f 93       	push	r22
    3f48:	6e 7f       	andi	r22, 0xFE	; 254
    3f4a:	6e 5f       	subi	r22, 0xFE	; 254
    3f4c:	7f 4f       	sbci	r23, 0xFF	; 255
    3f4e:	8f 4f       	sbci	r24, 0xFF	; 255
    3f50:	9f 4f       	sbci	r25, 0xFF	; 255
    3f52:	af 4f       	sbci	r26, 0xFF	; 255
    3f54:	b1 e0       	ldi	r27, 0x01	; 1
    3f56:	3e d0       	rcall	.+124    	; 0x3fd4 <__ultoa_invert+0x9c>
    3f58:	b4 e0       	ldi	r27, 0x04	; 4
    3f5a:	3c d0       	rcall	.+120    	; 0x3fd4 <__ultoa_invert+0x9c>
    3f5c:	67 0f       	add	r22, r23
    3f5e:	78 1f       	adc	r23, r24
    3f60:	89 1f       	adc	r24, r25
    3f62:	9a 1f       	adc	r25, r26
    3f64:	a1 1d       	adc	r26, r1
    3f66:	68 0f       	add	r22, r24
    3f68:	79 1f       	adc	r23, r25
    3f6a:	8a 1f       	adc	r24, r26
    3f6c:	91 1d       	adc	r25, r1
    3f6e:	a1 1d       	adc	r26, r1
    3f70:	6a 0f       	add	r22, r26
    3f72:	71 1d       	adc	r23, r1
    3f74:	81 1d       	adc	r24, r1
    3f76:	91 1d       	adc	r25, r1
    3f78:	a1 1d       	adc	r26, r1
    3f7a:	20 d0       	rcall	.+64     	; 0x3fbc <__ultoa_invert+0x84>
    3f7c:	09 f4       	brne	.+2      	; 0x3f80 <__ultoa_invert+0x48>
    3f7e:	68 94       	set
    3f80:	3f 91       	pop	r19
    3f82:	2a e0       	ldi	r18, 0x0A	; 10
    3f84:	26 9f       	mul	r18, r22
    3f86:	11 24       	eor	r1, r1
    3f88:	30 19       	sub	r19, r0
    3f8a:	30 5d       	subi	r19, 0xD0	; 208
    3f8c:	31 93       	st	Z+, r19
    3f8e:	de f6       	brtc	.-74     	; 0x3f46 <__ultoa_invert+0xe>
    3f90:	cf 01       	movw	r24, r30
    3f92:	08 95       	ret
    3f94:	46 2f       	mov	r20, r22
    3f96:	47 70       	andi	r20, 0x07	; 7
    3f98:	40 5d       	subi	r20, 0xD0	; 208
    3f9a:	41 93       	st	Z+, r20
    3f9c:	b3 e0       	ldi	r27, 0x03	; 3
    3f9e:	0f d0       	rcall	.+30     	; 0x3fbe <__ultoa_invert+0x86>
    3fa0:	c9 f7       	brne	.-14     	; 0x3f94 <__ultoa_invert+0x5c>
    3fa2:	f6 cf       	rjmp	.-20     	; 0x3f90 <__ultoa_invert+0x58>
    3fa4:	46 2f       	mov	r20, r22
    3fa6:	4f 70       	andi	r20, 0x0F	; 15
    3fa8:	40 5d       	subi	r20, 0xD0	; 208
    3faa:	4a 33       	cpi	r20, 0x3A	; 58
    3fac:	18 f0       	brcs	.+6      	; 0x3fb4 <__ultoa_invert+0x7c>
    3fae:	49 5d       	subi	r20, 0xD9	; 217
    3fb0:	31 fd       	sbrc	r19, 1
    3fb2:	40 52       	subi	r20, 0x20	; 32
    3fb4:	41 93       	st	Z+, r20
    3fb6:	02 d0       	rcall	.+4      	; 0x3fbc <__ultoa_invert+0x84>
    3fb8:	a9 f7       	brne	.-22     	; 0x3fa4 <__ultoa_invert+0x6c>
    3fba:	ea cf       	rjmp	.-44     	; 0x3f90 <__ultoa_invert+0x58>
    3fbc:	b4 e0       	ldi	r27, 0x04	; 4
    3fbe:	a6 95       	lsr	r26
    3fc0:	97 95       	ror	r25
    3fc2:	87 95       	ror	r24
    3fc4:	77 95       	ror	r23
    3fc6:	67 95       	ror	r22
    3fc8:	ba 95       	dec	r27
    3fca:	c9 f7       	brne	.-14     	; 0x3fbe <__ultoa_invert+0x86>
    3fcc:	00 97       	sbiw	r24, 0x00	; 0
    3fce:	61 05       	cpc	r22, r1
    3fd0:	71 05       	cpc	r23, r1
    3fd2:	08 95       	ret
    3fd4:	9b 01       	movw	r18, r22
    3fd6:	ac 01       	movw	r20, r24
    3fd8:	0a 2e       	mov	r0, r26
    3fda:	06 94       	lsr	r0
    3fdc:	57 95       	ror	r21
    3fde:	47 95       	ror	r20
    3fe0:	37 95       	ror	r19
    3fe2:	27 95       	ror	r18
    3fe4:	ba 95       	dec	r27
    3fe6:	c9 f7       	brne	.-14     	; 0x3fda <__ultoa_invert+0xa2>
    3fe8:	62 0f       	add	r22, r18
    3fea:	73 1f       	adc	r23, r19
    3fec:	84 1f       	adc	r24, r20
    3fee:	95 1f       	adc	r25, r21
    3ff0:	a0 1d       	adc	r26, r0
    3ff2:	08 95       	ret

00003ff4 <_exit>:
    3ff4:	f8 94       	cli

00003ff6 <__stop_program>:
    3ff6:	ff cf       	rjmp	.-2      	; 0x3ff6 <__stop_program>
